; ModuleID = 'C:/Users/caiyujie/Desktop/gongkaike_hls/code/day6/conv_core/solution1/.autopilot/db/a.o.1.tmp.bc'
target datalayout = "e-p:64:64:64-i1:8:8-i8:8:8-i16:16:16-i32:32:32-i64:64:64-f32:32:32-f64:64:64-v64:64:64-v128:128:128-a0:0:64-s0:64:64-f80:128:128-n8:16:32:64-S128"
target triple = "x86_64-w64-mingw32"

@llvm.global_ctors.1 = appending global [0 x void ()*] zeroinitializer ; [#uses=0 type=[0 x void ()*]*]
@llvm.global_ctors.0 = appending global [0 x i32] zeroinitializer ; [#uses=0 type=[0 x i32]*]
@__empty_str = internal unnamed_addr constant [1 x i8] zeroinitializer ; [#uses=0 type=[1 x i8]*]
@Conv.str = internal unnamed_addr constant [5 x i8] c"Conv\00" ; [#uses=1 type=[5 x i8]*]
@AP_complete_mode = internal unnamed_addr constant [9 x i8] c"COMPLETE\00" ; [#uses=0 type=[9 x i8]*]
@.str9 = private unnamed_addr constant [12 x i8] c"hls_label_4\00", align 1 ; [#uses=2 type=[12 x i8]*]
@.str8 = private unnamed_addr constant [12 x i8] c"hls_label_3\00", align 1 ; [#uses=2 type=[12 x i8]*]
@.str7 = private unnamed_addr constant [12 x i8] c"hls_label_2\00", align 1 ; [#uses=2 type=[12 x i8]*]
@.str6 = private unnamed_addr constant [12 x i8] c"hls_label_1\00", align 1 ; [#uses=2 type=[12 x i8]*]
@.str5 = private unnamed_addr constant [12 x i8] c"hls_label_0\00", align 1 ; [#uses=2 type=[12 x i8]*]
@.str4 = private unnamed_addr constant [6 x i8] c"slave\00", align 1 ; [#uses=3 type=[6 x i8]*]
@.str3 = private unnamed_addr constant [5 x i8] c"gmem\00", align 1 ; [#uses=3 type=[5 x i8]*]
@.str2 = private unnamed_addr constant [6 x i8] c"m_axi\00", align 1 ; [#uses=3 type=[6 x i8]*]
@.str10 = private unnamed_addr constant [12 x i8] c"hls_label_5\00", align 1 ; [#uses=2 type=[12 x i8]*]
@.str1 = private unnamed_addr constant [1 x i8] zeroinitializer, align 1 ; [#uses=103 type=[1 x i8]*]
@.str = private unnamed_addr constant [10 x i8] c"s_axilite\00", align 1 ; [#uses=14 type=[10 x i8]*]

; [#uses=1]
declare i128 @llvm.part.set.i128.i128(i128, i128, i32, i32) nounwind readnone

; [#uses=101]
declare void @llvm.dbg.value(metadata, i64, metadata) nounwind readnone

; [#uses=1]
declare void @_ssdm_op_SpecTopModule(...)

; [#uses=6]
declare i32 @_ssdm_op_SpecRegionEnd(...)

; [#uses=6]
declare i32 @_ssdm_op_SpecRegionBegin(...)

; [#uses=1]
declare void @_ssdm_op_SpecPipeline(...) nounwind

; [#uses=6]
declare void @_ssdm_op_SpecLoopTripCount(...) nounwind

; [#uses=17]
declare void @_ssdm_op_SpecInterface(...) nounwind

; [#uses=16]
declare void @_ssdm_op_SpecBitsMap(...)

; [#uses=16]
declare i16 @_ssdm_op_PartSelect.i16.i128.i32.i32(i128, i32, i32) nounwind readnone

; [#uses=0]
declare i32 @_ssdm_GepAggregate(...)

; [#uses=0]
declare i32 @_ssdm_ArrayAggregate(...)

; [#uses=0]
define void @Conv(i16 %CHin.V, i16 %Hin.V, i16 %Win.V, i16 %CHout.V, i8 %Kx.V, i8 %Ky.V, i8 %Sx.V, i8 %Sy.V, i1 %mode.V, i1 %relu_en.V, i128* %feature_in.V, i4 %feature_in_precision.V, i128* %W.V, i4 %W_precision.V, i128* %feature_out.V, i4 %feature_out_precision.V) {
  call void (...)* @_ssdm_op_SpecBitsMap(i16 %CHin.V), !map !11404
  call void (...)* @_ssdm_op_SpecBitsMap(i16 %Hin.V), !map !11410
  call void (...)* @_ssdm_op_SpecBitsMap(i16 %Win.V), !map !11414
  call void (...)* @_ssdm_op_SpecBitsMap(i16 %CHout.V), !map !11418
  call void (...)* @_ssdm_op_SpecBitsMap(i8 %Kx.V), !map !11422
  call void (...)* @_ssdm_op_SpecBitsMap(i8 %Ky.V), !map !11426
  call void (...)* @_ssdm_op_SpecBitsMap(i8 %Sx.V), !map !11430
  call void (...)* @_ssdm_op_SpecBitsMap(i8 %Sy.V), !map !11434
  call void (...)* @_ssdm_op_SpecBitsMap(i1 %mode.V), !map !11438
  call void (...)* @_ssdm_op_SpecBitsMap(i1 %relu_en.V), !map !11442
  call void (...)* @_ssdm_op_SpecBitsMap(i128* %feature_in.V), !map !11446
  call void (...)* @_ssdm_op_SpecBitsMap(i4 %feature_in_precision.V), !map !11450
  call void (...)* @_ssdm_op_SpecBitsMap(i128* %W.V), !map !11454
  call void (...)* @_ssdm_op_SpecBitsMap(i4 %W_precision.V), !map !11458
  call void (...)* @_ssdm_op_SpecBitsMap(i128* %feature_out.V), !map !11462
  call void (...)* @_ssdm_op_SpecBitsMap(i4 %feature_out_precision.V), !map !11466
  call void (...)* @_ssdm_op_SpecTopModule([5 x i8]* @Conv.str) nounwind
  call void @llvm.dbg.value(metadata !{i128* %feature_in.V}, i64 0, metadata !11470), !dbg !11479 ; [debug line = 9:13] [debug variable = feature_in.V]
  call void @llvm.dbg.value(metadata !{i128* %W.V}, i64 0, metadata !11480), !dbg !11482 ; [debug line = 10:13] [debug variable = W.V]
  call void @llvm.dbg.value(metadata !{i128* %feature_out.V}, i64 0, metadata !11483), !dbg !11485 ; [debug line = 11:13] [debug variable = feature_out.V]
  call void (...)* @_ssdm_op_SpecInterface(i32 0, [10 x i8]* @.str, i32 0, i32 0, [1 x i8]* @.str1, i32 0, i32 0, [1 x i8]* @.str1, [1 x i8]* @.str1, [1 x i8]* @.str1, i32 0, i32 0, i32 0, i32 0, [1 x i8]* @.str1, [1 x i8]* @.str1) nounwind, !dbg !11486 ; [debug line = 14:1]
  call void (...)* @_ssdm_op_SpecInterface(i4 %feature_out_precision.V, [10 x i8]* @.str, i32 0, i32 0, [1 x i8]* @.str1, i32 0, i32 0, [1 x i8]* @.str1, [1 x i8]* @.str1, [1 x i8]* @.str1, i32 0, i32 0, i32 0, i32 0, [1 x i8]* @.str1, [1 x i8]* @.str1) nounwind, !dbg !11488 ; [debug line = 15:1]
  call void (...)* @_ssdm_op_SpecInterface(i4 %feature_in_precision.V, [10 x i8]* @.str, i32 0, i32 0, [1 x i8]* @.str1, i32 0, i32 0, [1 x i8]* @.str1, [1 x i8]* @.str1, [1 x i8]* @.str1, i32 0, i32 0, i32 0, i32 0, [1 x i8]* @.str1, [1 x i8]* @.str1) nounwind, !dbg !11489 ; [debug line = 16:1]
  call void (...)* @_ssdm_op_SpecInterface(i8 %Sy.V, [10 x i8]* @.str, i32 0, i32 0, [1 x i8]* @.str1, i32 0, i32 0, [1 x i8]* @.str1, [1 x i8]* @.str1, [1 x i8]* @.str1, i32 0, i32 0, i32 0, i32 0, [1 x i8]* @.str1, [1 x i8]* @.str1) nounwind, !dbg !11490 ; [debug line = 17:1]
  call void (...)* @_ssdm_op_SpecInterface(i8 %Kx.V, [10 x i8]* @.str, i32 0, i32 0, [1 x i8]* @.str1, i32 0, i32 0, [1 x i8]* @.str1, [1 x i8]* @.str1, [1 x i8]* @.str1, i32 0, i32 0, i32 0, i32 0, [1 x i8]* @.str1, [1 x i8]* @.str1) nounwind, !dbg !11491 ; [debug line = 18:1]
  call void (...)* @_ssdm_op_SpecInterface(i16 %Win.V, [10 x i8]* @.str, i32 0, i32 0, [1 x i8]* @.str1, i32 0, i32 0, [1 x i8]* @.str1, [1 x i8]* @.str1, [1 x i8]* @.str1, i32 0, i32 0, i32 0, i32 0, [1 x i8]* @.str1, [1 x i8]* @.str1) nounwind, !dbg !11492 ; [debug line = 19:1]
  call void (...)* @_ssdm_op_SpecInterface(i8 %Sx.V, [10 x i8]* @.str, i32 0, i32 0, [1 x i8]* @.str1, i32 0, i32 0, [1 x i8]* @.str1, [1 x i8]* @.str1, [1 x i8]* @.str1, i32 0, i32 0, i32 0, i32 0, [1 x i8]* @.str1, [1 x i8]* @.str1) nounwind, !dbg !11493 ; [debug line = 20:1]
  call void (...)* @_ssdm_op_SpecInterface(i16 %Hin.V, [10 x i8]* @.str, i32 0, i32 0, [1 x i8]* @.str1, i32 0, i32 0, [1 x i8]* @.str1, [1 x i8]* @.str1, [1 x i8]* @.str1, i32 0, i32 0, i32 0, i32 0, [1 x i8]* @.str1, [1 x i8]* @.str1) nounwind, !dbg !11494 ; [debug line = 21:1]
  call void (...)* @_ssdm_op_SpecInterface(i4 %W_precision.V, [10 x i8]* @.str, i32 0, i32 0, [1 x i8]* @.str1, i32 0, i32 0, [1 x i8]* @.str1, [1 x i8]* @.str1, [1 x i8]* @.str1, i32 0, i32 0, i32 0, i32 0, [1 x i8]* @.str1, [1 x i8]* @.str1) nounwind, !dbg !11495 ; [debug line = 22:1]
  call void (...)* @_ssdm_op_SpecInterface(i1 %relu_en.V, [10 x i8]* @.str, i32 0, i32 0, [1 x i8]* @.str1, i32 0, i32 0, [1 x i8]* @.str1, [1 x i8]* @.str1, [1 x i8]* @.str1, i32 0, i32 0, i32 0, i32 0, [1 x i8]* @.str1, [1 x i8]* @.str1) nounwind, !dbg !11496 ; [debug line = 23:1]
  call void (...)* @_ssdm_op_SpecInterface(i8 %Ky.V, [10 x i8]* @.str, i32 0, i32 0, [1 x i8]* @.str1, i32 0, i32 0, [1 x i8]* @.str1, [1 x i8]* @.str1, [1 x i8]* @.str1, i32 0, i32 0, i32 0, i32 0, [1 x i8]* @.str1, [1 x i8]* @.str1) nounwind, !dbg !11497 ; [debug line = 24:1]
  call void (...)* @_ssdm_op_SpecInterface(i16 %CHin.V, [10 x i8]* @.str, i32 0, i32 0, [1 x i8]* @.str1, i32 0, i32 0, [1 x i8]* @.str1, [1 x i8]* @.str1, [1 x i8]* @.str1, i32 0, i32 0, i32 0, i32 0, [1 x i8]* @.str1, [1 x i8]* @.str1) nounwind, !dbg !11498 ; [debug line = 25:1]
  call void (...)* @_ssdm_op_SpecInterface(i1 %mode.V, [10 x i8]* @.str, i32 0, i32 0, [1 x i8]* @.str1, i32 0, i32 0, [1 x i8]* @.str1, [1 x i8]* @.str1, [1 x i8]* @.str1, i32 0, i32 0, i32 0, i32 0, [1 x i8]* @.str1, [1 x i8]* @.str1) nounwind, !dbg !11499 ; [debug line = 26:1]
  call void (...)* @_ssdm_op_SpecInterface(i16 %CHout.V, [10 x i8]* @.str, i32 0, i32 0, [1 x i8]* @.str1, i32 0, i32 0, [1 x i8]* @.str1, [1 x i8]* @.str1, [1 x i8]* @.str1, i32 0, i32 0, i32 0, i32 0, [1 x i8]* @.str1, [1 x i8]* @.str1) nounwind, !dbg !11500 ; [debug line = 27:1]
  call void (...)* @_ssdm_op_SpecInterface(i128* %feature_out.V, [6 x i8]* @.str2, i32 0, i32 0, [1 x i8]* @.str1, i32 0, i64 4294967295, [5 x i8]* @.str3, [6 x i8]* @.str4, [1 x i8]* @.str1, i32 16, i32 16, i32 16, i32 16, [1 x i8]* @.str1, [1 x i8]* @.str1) nounwind, !dbg !11501 ; [debug line = 29:1]
  call void (...)* @_ssdm_op_SpecInterface(i128* %W.V, [6 x i8]* @.str2, i32 0, i32 0, [1 x i8]* @.str1, i32 0, i64 4294967295, [5 x i8]* @.str3, [6 x i8]* @.str4, [1 x i8]* @.str1, i32 16, i32 16, i32 16, i32 16, [1 x i8]* @.str1, [1 x i8]* @.str1) nounwind, !dbg !11502 ; [debug line = 30:1]
  call void (...)* @_ssdm_op_SpecInterface(i128* %feature_in.V, [6 x i8]* @.str2, i32 0, i32 0, [1 x i8]* @.str1, i32 0, i64 4294967295, [5 x i8]* @.str3, [6 x i8]* @.str4, [1 x i8]* @.str1, i32 16, i32 16, i32 16, i32 16, [1 x i8]* @.str1, [1 x i8]* @.str1) nounwind, !dbg !11503 ; [debug line = 31:1]
  %lhs.V = zext i16 %CHin.V to i18                ; [#uses=2 type=i18]
  %r.V.1.tr = add i18 %lhs.V, 7, !dbg !11504      ; [#uses=2 type=i18] [debug line = 3426:0@3523:0@35:26]
  %_signbit = lshr i18 %r.V.1.tr, 17, !dbg !11504 ; [#uses=1 type=i18] [debug line = 3426:0@3523:0@35:26]
  %_cond = trunc i18 %_signbit to i1, !dbg !11504 ; [#uses=1 type=i1] [debug line = 3426:0@3523:0@35:26]
  %_neg = sub i18 -7, %lhs.V, !dbg !11504         ; [#uses=1 type=i18] [debug line = 3426:0@3523:0@35:26]
  %_lshr = lshr i18 %_neg, 3, !dbg !11504         ; [#uses=1 type=i18] [debug line = 3426:0@3523:0@35:26]
  %tmp = trunc i18 %_lshr to i16, !dbg !11504     ; [#uses=1 type=i16] [debug line = 3426:0@3523:0@35:26]
  %_lshr.f = lshr i18 %r.V.1.tr, 3, !dbg !11504   ; [#uses=1 type=i18] [debug line = 3426:0@3523:0@35:26]
  %tmp.1 = sub i16 0, %tmp, !dbg !11504           ; [#uses=1 type=i16] [debug line = 3426:0@3523:0@35:26]
  %tmp.4 = trunc i18 %_lshr.f to i16, !dbg !11504 ; [#uses=1 type=i16] [debug line = 3426:0@3523:0@35:26]
  %CHin_div_K.V = select i1 %_cond, i16 %tmp.1, i16 %tmp.4, !dbg !11504 ; [#uses=2 type=i16] [debug line = 3426:0@3523:0@35:26]
  call void @llvm.dbg.value(metadata !{i16 %CHin_div_K.V}, i64 0, metadata !11509), !dbg !11517 ; [debug line = 229:89@229:104@35:26] [debug variable = CHin_div_K.V]
  %lhs.V.1 = zext i4 %feature_in_precision.V to i5, !dbg !11520 ; [#uses=1 type=i5] [debug line = 1506:93@1506:109@3424:0@37:15]
  call void @llvm.dbg.value(metadata !{i5 %lhs.V.1}, i64 0, metadata !11526), !dbg !11520 ; [debug line = 1506:93@1506:109@3424:0@37:15] [debug variable = lhs.V]
  %rhs.V = zext i4 %W_precision.V to i5, !dbg !11520 ; [#uses=1 type=i5] [debug line = 1506:93@1506:109@3424:0@37:15]
  call void @llvm.dbg.value(metadata !{i5 %rhs.V}, i64 0, metadata !11532), !dbg !11520 ; [debug line = 1506:93@1506:109@3424:0@37:15] [debug variable = rhs.V]
  call void @llvm.dbg.value(metadata !{i5 %r.V}, i64 0, metadata !11534), !dbg !11523 ; [debug line = 3424:0@37:15] [debug variable = r.V]
  %tmp.3 = zext i4 %feature_out_precision.V to i5, !dbg !11537 ; [#uses=1 type=i5] [debug line = 229:89@229:104@37:15]
  %r.V = add i5 %rhs.V, %lhs.V.1, !dbg !11523     ; [#uses=1 type=i5] [debug line = 3424:0@37:15]
  %out_truncate.V = sub i5 %r.V, %tmp.3, !dbg !11537 ; [#uses=1 type=i5] [debug line = 229:89@229:104@37:15]
  call void @llvm.dbg.value(metadata !{i5 %out_truncate.V}, i64 0, metadata !11540), !dbg !11544 ; [debug line = 281:5@37:15] [debug variable = out_truncate.V]
  br i1 %mode.V, label %1, label %._crit_edge, !dbg !11546 ; [debug line = 39:5]

; <label>:1                                       ; preds = %0
  %tmp.13 = zext i8 %Kx.V to i10                  ; [#uses=2 type=i10]
  %r.V.3.tr = add i10 %tmp.13, -1, !dbg !11547    ; [#uses=2 type=i10] [debug line = 3426:0@3523:0@45:10]
  %_signbit1 = lshr i10 %r.V.3.tr, 9, !dbg !11547 ; [#uses=1 type=i10] [debug line = 3426:0@3523:0@45:10]
  %_cond1 = trunc i10 %_signbit1 to i1, !dbg !11547 ; [#uses=1 type=i1] [debug line = 3426:0@3523:0@45:10]
  %_neg1 = sub i10 1, %tmp.13, !dbg !11547        ; [#uses=1 type=i10] [debug line = 3426:0@3523:0@45:10]
  %_lshr1 = lshr i10 %_neg1, 1, !dbg !11547       ; [#uses=1 type=i10] [debug line = 3426:0@3523:0@45:10]
  %tmp.14 = trunc i10 %_lshr1 to i8, !dbg !11547  ; [#uses=1 type=i8] [debug line = 3426:0@3523:0@45:10]
  %_lshr.f1 = lshr i10 %r.V.3.tr, 1, !dbg !11547  ; [#uses=1 type=i10] [debug line = 3426:0@3523:0@45:10]
  %tmp.15 = sub i8 0, %tmp.14, !dbg !11547        ; [#uses=1 type=i8] [debug line = 3426:0@3523:0@45:10]
  %tmp.19 = trunc i10 %_lshr.f1 to i8, !dbg !11547 ; [#uses=1 type=i8] [debug line = 3426:0@3523:0@45:10]
  %pad_x.V = select i1 %_cond1, i8 %tmp.15, i8 %tmp.19, !dbg !11547 ; [#uses=1 type=i8] [debug line = 3426:0@3523:0@45:10]
  call void @llvm.dbg.value(metadata !{i8 %pad_x.V}, i64 0, metadata !11553), !dbg !11561 ; [debug line = 281:5@45:10] [debug variable = pad_x.V]
  %tmp.24 = zext i8 %Ky.V to i10                  ; [#uses=2 type=i10]
  %r.V.4.tr = add i10 %tmp.24, -1, !dbg !11563    ; [#uses=2 type=i10] [debug line = 3426:0@3523:0@45:25]
  %_signbit9 = lshr i10 %r.V.4.tr, 9, !dbg !11563 ; [#uses=1 type=i10] [debug line = 3426:0@3523:0@45:25]
  %_cond2 = trunc i10 %_signbit9 to i1, !dbg !11563 ; [#uses=1 type=i1] [debug line = 3426:0@3523:0@45:25]
  %_neg2 = sub i10 1, %tmp.24, !dbg !11563        ; [#uses=1 type=i10] [debug line = 3426:0@3523:0@45:25]
  %_lshr2 = lshr i10 %_neg2, 1, !dbg !11563       ; [#uses=1 type=i10] [debug line = 3426:0@3523:0@45:25]
  %tmp.25 = trunc i10 %_lshr2 to i8, !dbg !11563  ; [#uses=1 type=i8] [debug line = 3426:0@3523:0@45:25]
  %_lshr.f2 = lshr i10 %r.V.4.tr, 1, !dbg !11563  ; [#uses=1 type=i10] [debug line = 3426:0@3523:0@45:25]
  %tmp.52 = sub i8 0, %tmp.25, !dbg !11563        ; [#uses=1 type=i8] [debug line = 3426:0@3523:0@45:25]
  %tmp.53 = trunc i10 %_lshr.f2 to i8, !dbg !11563 ; [#uses=1 type=i8] [debug line = 3426:0@3523:0@45:25]
  %pad_y.V = select i1 %_cond2, i8 %tmp.52, i8 %tmp.53, !dbg !11563 ; [#uses=1 type=i8] [debug line = 3426:0@3523:0@45:25]
  call void @llvm.dbg.value(metadata !{i8 %pad_y.V}, i64 0, metadata !11566), !dbg !11568 ; [debug line = 281:5@45:25] [debug variable = pad_y.V]
  br label %._crit_edge

._crit_edge:                                      ; preds = %1, %0
  %.1 = phi i8 [ %pad_x.V, %1 ], [ 0, %0 ]        ; [#uses=2 type=i8]
  %.2 = phi i8 [ %pad_y.V, %1 ], [ 0, %0 ]        ; [#uses=2 type=i8]
  %rhs.V.1 = zext i8 %.1 to i19, !dbg !11569      ; [#uses=1 type=i19] [debug line = 3426:0@48:12]
  %r.V.5 = shl nuw nsw i19 %rhs.V.1, 1, !dbg !11569 ; [#uses=1 type=i19] [debug line = 3426:0@48:12]
  %lhs.V.5 = zext i16 %Win.V to i19, !dbg !11569  ; [#uses=1 type=i19] [debug line = 3426:0@48:12]
  %r.V.6 = add i19 %lhs.V.5, %r.V.5, !dbg !11569  ; [#uses=1 type=i19] [debug line = 3426:0@48:12]
  %rhs.V.3 = zext i8 %Kx.V to i19, !dbg !11569    ; [#uses=1 type=i19] [debug line = 3426:0@48:12]
  %r.V.7 = sub i19 %r.V.6, %rhs.V.3, !dbg !11569  ; [#uses=1 type=i19] [debug line = 3426:0@48:12]
  %tmp.1.tr = zext i8 %Sx.V to i19, !dbg !11569   ; [#uses=1 type=i19] [debug line = 3426:0@48:12]
  %tmp.54 = sdiv i19 %r.V.7, %tmp.1.tr, !dbg !11569 ; [#uses=1 type=i19] [debug line = 3426:0@48:12]
  %tmp.2 = trunc i19 %tmp.54 to i16, !dbg !11572  ; [#uses=1 type=i16] [debug line = 229:89@229:104@48:12]
  %Wout.V = add i16 %tmp.2, 1, !dbg !11572        ; [#uses=2 type=i16] [debug line = 229:89@229:104@48:12]
  call void @llvm.dbg.value(metadata !{i16 %Wout.V}, i64 0, metadata !11575), !dbg !11577 ; [debug line = 281:5@48:12] [debug variable = Wout.V]
  %rhs.V.4 = zext i8 %.2 to i19, !dbg !11579      ; [#uses=1 type=i19] [debug line = 3426:0@49:12]
  %r.V.9 = shl nuw nsw i19 %rhs.V.4, 1, !dbg !11579 ; [#uses=1 type=i19] [debug line = 3426:0@49:12]
  %lhs.V.7 = zext i16 %Hin.V to i19, !dbg !11579  ; [#uses=1 type=i19] [debug line = 3426:0@49:12]
  %r.V. = add i19 %lhs.V.7, %r.V.9, !dbg !11579   ; [#uses=1 type=i19] [debug line = 3426:0@49:12]
  %rhs.V.6 = zext i8 %Ky.V to i19, !dbg !11579    ; [#uses=1 type=i19] [debug line = 3426:0@49:12]
  %r.V.1 = sub i19 %r.V., %rhs.V.6, !dbg !11579   ; [#uses=1 type=i19] [debug line = 3426:0@49:12]
  %tmp.4.tr = zext i8 %Sy.V to i19, !dbg !11579   ; [#uses=1 type=i19] [debug line = 3426:0@49:12]
  %tmp.55 = sdiv i19 %r.V.1, %tmp.4.tr, !dbg !11579 ; [#uses=1 type=i19] [debug line = 3426:0@49:12]
  %tmp.5 = trunc i19 %tmp.55 to i16, !dbg !11581  ; [#uses=1 type=i16] [debug line = 229:89@229:104@49:12]
  %Hout.V = add i16 %tmp.5, 1, !dbg !11581        ; [#uses=2 type=i16] [debug line = 229:89@229:104@49:12]
  call void @llvm.dbg.value(metadata !{i16 %Hout.V}, i64 0, metadata !11583), !dbg !11585 ; [debug line = 281:5@49:12] [debug variable = Hout.V]
  %tmp.6 = zext i16 %CHin_div_K.V to i32          ; [#uses=1 type=i32]
  %tmp.8 = zext i16 %Wout.V to i32                ; [#uses=1 type=i32]
  %tmp.9 = zext i16 %Hout.V to i32                ; [#uses=1 type=i32]
  %tmp. = zext i8 %.2 to i16, !dbg !11586         ; [#uses=1 type=i16] [debug line = 121:88@121:104@67:15]
  %tmp.7 = zext i8 %.1 to i16, !dbg !11600        ; [#uses=1 type=i16] [debug line = 121:88@121:104@68:20]
  %rhs.V.12 = zext i16 %CHin_div_K.V to i48, !dbg !11603 ; [#uses=3 type=i48] [debug line = 1506:93@1506:109@3423:0@3523:203@81:15]
  %tmp.10 = zext i5 %out_truncate.V to i40, !dbg !11615 ; [#uses=1 type=i40] [debug line = 1972:22@110:19]
  %rhs.V.2 = zext i16 %Wout.V to i48, !dbg !11618 ; [#uses=2 type=i48] [debug line = 1506:93@1506:109@3423:0@3523:203@123:17]
  %rhs.V.5 = zext i16 %Hout.V to i64, !dbg !11623 ; [#uses=1 type=i64] [debug line = 1506:93@1506:109@3423:0@123:17]
  %tmp.56 = zext i8 %Kx.V to i32                  ; [#uses=1 type=i32]
  %tmp.57 = zext i8 %Ky.V to i32                  ; [#uses=1 type=i32]
  %tmp.58 = zext i16 %CHout.V to i32              ; [#uses=1 type=i32]
  %tmp.27 = zext i8 %Sy.V to i16, !dbg !11586     ; [#uses=1 type=i16] [debug line = 121:88@121:104@67:15]
  %tmp.30 = zext i8 %Sx.V to i16, !dbg !11600     ; [#uses=1 type=i16] [debug line = 121:88@121:104@68:20]
  %tmp.41 = zext i16 %Hin.V to i32, !dbg !11628   ; [#uses=1 type=i32] [debug line = 2042:5@78:28]
  %rhs.V.7 = zext i16 %Win.V to i32, !dbg !11631  ; [#uses=2 type=i32] [debug line = 2042:5@78:37]
  %rhs.V.8 = zext i16 %Hin.V to i48, !dbg !11633  ; [#uses=1 type=i48] [debug line = 1506:93@1506:109@3423:0@3523:203@80:25]
  %rhs.V.9 = zext i16 %Win.V to i64, !dbg !11638  ; [#uses=1 type=i64] [debug line = 1506:93@1506:109@3423:0@80:25]
  %rhs.V.10 = zext i8 %Kx.V to i56, !dbg !11641   ; [#uses=2 type=i56] [debug line = 1506:93@1506:109@3423:0@81:15]
  %rhs.V.11 = zext i8 %Ky.V to i64, !dbg !11646   ; [#uses=1 type=i64] [debug line = 1506:93@1506:109@3423:0@81:15]
  br label %2, !dbg !11651                        ; [debug line = 51:16]

; <label>:2                                       ; preds = %25, %._crit_edge
  %i_op.assign.12 = phi i32 [ 0, %._crit_edge ], [ %cout, %25 ] ; [#uses=5 type=i32]
  %exitcond7 = icmp eq i32 %i_op.assign.12, %tmp.58, !dbg !11652 ; [#uses=1 type=i1] [debug line = 51:22]
  br i1 %exitcond7, label %27, label %3, !dbg !11652 ; [debug line = 51:22]

; <label>:3                                       ; preds = %2
  %tmp.59 = call i32 (...)* @_ssdm_op_SpecRegionBegin([12 x i8]* @.str5), !dbg !11653 ; [#uses=1 type=i32] [debug line = 52:3]
  call void (...)* @_ssdm_op_SpecLoopTripCount(i32 4, i32 4, i32 4, [1 x i8]* @.str1) nounwind, !dbg !11654 ; [debug line = 53:1]
  %lhs.V.15 = zext i32 %i_op.assign.12 to i48, !dbg !11655 ; [#uses=1 type=i48] [debug line = 1506:93@1506:109@3423:0@3523:203@81:15]
  %r.V.2 = mul nsw i48 %rhs.V.12, %lhs.V.15, !dbg !11606 ; [#uses=1 type=i48] [debug line = 3423:0@3523:203@81:15]
  %lhs.V.2 = zext i48 %r.V.2 to i56, !dbg !11658  ; [#uses=1 type=i56] [debug line = 1506:93@1506:109@3423:0@81:15]
  %i_op.assign.5.tr = trunc i32 %i_op.assign.12 to i17, !dbg !11622 ; [#uses=3 type=i17] [debug line = 123:17]
  %_signbit2 = lshr i17 %i_op.assign.5.tr, 16, !dbg !11622 ; [#uses=1 type=i17] [debug line = 123:17]
  %_cond3 = trunc i17 %_signbit2 to i1, !dbg !11622 ; [#uses=1 type=i1] [debug line = 123:17]
  %_neg3 = sub i17 0, %i_op.assign.5.tr, !dbg !11622 ; [#uses=1 type=i17] [debug line = 123:17]
  %_lshr3 = lshr i17 %_neg3, 3, !dbg !11622       ; [#uses=1 type=i17] [debug line = 123:17]
  %_neg.t = sub i17 0, %_lshr3, !dbg !11622       ; [#uses=1 type=i17] [debug line = 123:17]
  %_lshr.f3 = lshr i17 %i_op.assign.5.tr, 3, !dbg !11622 ; [#uses=1 type=i17] [debug line = 123:17]
  %tmp.60 = select i1 %_cond3, i17 %_neg.t, i17 %_lshr.f3, !dbg !11622 ; [#uses=1 type=i17] [debug line = 123:17]
  %lhs.V.3 = zext i17 %tmp.60 to i48, !dbg !11661 ; [#uses=1 type=i48] [debug line = 1506:93@1506:109@3423:0@3523:203@123:17]
  %r.V.3 = mul nsw i48 %rhs.V.2, %lhs.V.3, !dbg !11620 ; [#uses=1 type=i48] [debug line = 3423:0@3523:203@123:17]
  %lhs.V.4 = zext i48 %r.V.3 to i64, !dbg !11663  ; [#uses=1 type=i64] [debug line = 1506:93@1506:109@3423:0@123:17]
  %r.V.4 = mul nsw i64 %rhs.V.5, %lhs.V.4, !dbg !11626 ; [#uses=1 type=i64] [debug line = 3423:0@123:17]
  %tmp.61 = trunc i32 %i_op.assign.12 to i28, !dbg !11666 ; [#uses=1 type=i28] [debug line = 123:36]
  %tmp.11 = and i28 %tmp.61, 7, !dbg !11666       ; [#uses=1 type=i28] [debug line = 123:36]
  %tmp.12 = zext i28 %tmp.11 to i32, !dbg !11666  ; [#uses=1 type=i32] [debug line = 123:36]
  %Lo.assign = shl nuw nsw i32 %tmp.12, 4, !dbg !11666 ; [#uses=2 type=i32] [debug line = 123:36]
  %Hi.assign = or i32 %Lo.assign, 15, !dbg !11666 ; [#uses=1 type=i32] [debug line = 123:36]
  %r.V.11 = mul nsw i56 %rhs.V.10, %lhs.V.2, !dbg !11644 ; [#uses=1 type=i56] [debug line = 3423:0@81:15]
  %lhs.V.14 = zext i56 %r.V.11 to i64, !dbg !11667 ; [#uses=1 type=i64] [debug line = 1506:93@1506:109@3423:0@81:15]
  %r.V.17 = mul nsw i64 %lhs.V.14, %rhs.V.11, !dbg !11649 ; [#uses=1 type=i64] [debug line = 3423:0@81:15]
  br label %4, !dbg !11670                        ; [debug line = 54:13]

; <label>:4                                       ; preds = %23, %3
  %i_op.assign.8 = phi i32 [ 0, %3 ], [ %i, %23 ] ; [#uses=4 type=i32]
  %exitcond1 = icmp eq i32 %i_op.assign.8, %tmp.9, !dbg !11671 ; [#uses=1 type=i1] [debug line = 54:16]
  br i1 %exitcond1, label %25, label %5, !dbg !11671 ; [debug line = 54:16]

; <label>:5                                       ; preds = %4
  %tmp.62 = call i32 (...)* @_ssdm_op_SpecRegionBegin([12 x i8]* @.str6), !dbg !11672 ; [#uses=1 type=i32] [debug line = 55:4]
  call void (...)* @_ssdm_op_SpecLoopTripCount(i32 4, i32 4, i32 4, [1 x i8]* @.str1) nounwind, !dbg !11673 ; [debug line = 56:1]
  %tmp.16 = trunc i32 %i_op.assign.8 to i16, !dbg !11586 ; [#uses=1 type=i16] [debug line = 121:88@121:104@67:15]
  %lhs.V.6 = zext i32 %i_op.assign.8 to i48, !dbg !11674 ; [#uses=1 type=i48] [debug line = 1506:93@1506:109@3423:0@3523:203@123:36]
  %r.V.8 = mul nsw i48 %lhs.V.6, %rhs.V.2, !dbg !11676 ; [#uses=1 type=i48] [debug line = 3423:0@3523:203@123:36]
  %tmp.17 = zext i48 %r.V.8 to i64, !dbg !11678   ; [#uses=1 type=i64] [debug line = 2653:68@123:36]
  %tmp.28 = mul i16 %tmp.27, %tmp.16, !dbg !11586 ; [#uses=1 type=i16] [debug line = 121:88@121:104@67:15]
  %tmp.29 = sub i16 %tmp.28, %tmp., !dbg !11586   ; [#uses=1 type=i16] [debug line = 121:88@121:104@67:15]
  %tmp.39 = add i64 %tmp.17, %r.V.4, !dbg !11678  ; [#uses=1 type=i64] [debug line = 2653:68@123:36]
  br label %6, !dbg !11680                        ; [debug line = 57:13]

; <label>:6                                       ; preds = %._crit_edge1633, %5
  %i_op.assign.10 = phi i32 [ 0, %5 ], [ %j, %._crit_edge1633 ] ; [#uses=4 type=i32]
  %exitcond2 = icmp eq i32 %i_op.assign.10, %tmp.8, !dbg !11681 ; [#uses=1 type=i1] [debug line = 57:16]
  br i1 %exitcond2, label %23, label %7, !dbg !11681 ; [debug line = 57:16]

; <label>:7                                       ; preds = %6
  %tmp.63 = call i32 (...)* @_ssdm_op_SpecRegionBegin([12 x i8]* @.str7), !dbg !11682 ; [#uses=1 type=i32] [debug line = 58:5]
  call void (...)* @_ssdm_op_SpecLoopTripCount(i32 4, i32 4, i32 4, [1 x i8]* @.str1) nounwind, !dbg !11683 ; [debug line = 59:1]
  %tmp.18 = trunc i32 %i_op.assign.10 to i16, !dbg !11600 ; [#uses=1 type=i16] [debug line = 121:88@121:104@68:20]
  %tmp.31 = mul i16 %tmp.30, %tmp.18, !dbg !11600 ; [#uses=1 type=i16] [debug line = 121:88@121:104@68:20]
  %tmp.32 = sub i16 %tmp.31, %tmp.7, !dbg !11600  ; [#uses=1 type=i16] [debug line = 121:88@121:104@68:20]
  br label %8, !dbg !11684                        ; [debug line = 61:17]

; <label>:8                                       ; preds = %18, %7
  %.3 = phi i40 [ 0, %7 ], [ %.0807.1.lcssa, %18 ] ; [#uses=2 type=i40]
  %i_op.assign.9 = phi i32 [ 0, %7 ], [ %ii, %18 ] ; [#uses=4 type=i32]
  %exitcond6 = icmp eq i32 %i_op.assign.9, %tmp.57, !dbg !11685 ; [#uses=1 type=i1] [debug line = 61:21]
  br i1 %exitcond6, label %20, label %9, !dbg !11685 ; [debug line = 61:21]

; <label>:9                                       ; preds = %8
  %tmp.64 = call i32 (...)* @_ssdm_op_SpecRegionBegin([12 x i8]* @.str8), !dbg !11686 ; [#uses=1 type=i32] [debug line = 62:6]
  call void (...)* @_ssdm_op_SpecLoopTripCount(i32 4, i32 4, i32 4, [1 x i8]* @.str1) nounwind, !dbg !11687 ; [debug line = 63:1]
  %tmp.21 = trunc i32 %i_op.assign.9 to i16, !dbg !11586 ; [#uses=1 type=i16] [debug line = 121:88@121:104@67:15]
  %lhs.V.8 = zext i32 %i_op.assign.9 to i48, !dbg !11688 ; [#uses=1 type=i48] [debug line = 1506:93@1506:109@3423:0@3523:203@81:37]
  %r.V.12 = mul nsw i48 %lhs.V.8, %rhs.V.12, !dbg !11690 ; [#uses=1 type=i48] [debug line = 3423:0@3523:203@81:37]
  %lhs.V.9 = zext i48 %r.V.12 to i56, !dbg !11693 ; [#uses=1 type=i56] [debug line = 1506:93@1506:109@3423:0@81:37]
  %h.V = add i16 %tmp.29, %tmp.21, !dbg !11586    ; [#uses=2 type=i16] [debug line = 121:88@121:104@67:15]
  %lhs.V.10 = sext i16 %h.V to i32, !dbg !11628   ; [#uses=2 type=i32] [debug line = 2042:5@78:28]
  %tmp.42 = icmp slt i32 %lhs.V.10, %tmp.41, !dbg !11628 ; [#uses=1 type=i1] [debug line = 2042:5@78:28]
  %r.V.16 = mul nsw i32 %rhs.V.7, %lhs.V.10, !dbg !11696 ; [#uses=1 type=i32] [debug line = 3423:0@80:37]
  %tmp.44 = sext i32 %r.V.16 to i64, !dbg !11699  ; [#uses=1 type=i64] [debug line = 2653:68@80:37]
  %r.V.19 = mul nsw i56 %rhs.V.10, %lhs.V.9, !dbg !11695 ; [#uses=1 type=i56] [debug line = 3423:0@81:37]
  %tmp.47 = zext i56 %r.V.19 to i64, !dbg !11700  ; [#uses=1 type=i64] [debug line = 2653:68@81:54]
  br label %10, !dbg !11703                       ; [debug line = 64:14]

; <label>:10                                      ; preds = %16, %9
  %.0807.1 = phi i40 [ %.3, %9 ], [ %.0807.2.lcssa, %16 ] ; [#uses=2 type=i40]
  %i_op.assign.11 = phi i32 [ 0, %9 ], [ %jj, %16 ] ; [#uses=4 type=i32]
  %exitcond5 = icmp eq i32 %i_op.assign.11, %tmp.56, !dbg !11704 ; [#uses=1 type=i1] [debug line = 64:18]
  br i1 %exitcond5, label %18, label %11, !dbg !11704 ; [debug line = 64:18]

; <label>:11                                      ; preds = %10
  %tmp.65 = call i32 (...)* @_ssdm_op_SpecRegionBegin([12 x i8]* @.str9), !dbg !11705 ; [#uses=1 type=i32] [debug line = 65:7]
  call void (...)* @_ssdm_op_SpecLoopTripCount(i32 4, i32 4, i32 4, [1 x i8]* @.str1) nounwind, !dbg !11706 ; [debug line = 66:1]
  call void @llvm.dbg.value(metadata !{i32 %i_op.assign.8}, i64 0, metadata !11707), !dbg !11708 ; [debug line = 3523:152@67:15] [debug variable = i_op]
  call void @llvm.dbg.value(metadata !{i32 %i_op.assign.8}, i64 0, metadata !11709), !dbg !11710 ; [debug line = 1521:66@3523:203@67:15] [debug variable = op]
  call void @llvm.dbg.value(metadata !{i32 %i_op.assign.8}, i64 0, metadata !11713), !dbg !11714 ; [debug line = 1521:66@1521:86@3523:203@67:15] [debug variable = op]
  call void @llvm.dbg.value(metadata !{i32 %i_op.assign.9}, i64 0, metadata !11716), !dbg !11717 ; [debug line = 3523:0@67:15] [debug variable = i_op]
  call void @llvm.dbg.value(metadata !{i32 %i_op.assign.9}, i64 0, metadata !11709), !dbg !11718 ; [debug line = 1521:66@3523:0@67:15] [debug variable = op]
  call void @llvm.dbg.value(metadata !{i32 %i_op.assign.9}, i64 0, metadata !11713), !dbg !11721 ; [debug line = 1521:66@1521:86@3523:0@67:15] [debug variable = op]
  call void @llvm.dbg.value(metadata !{i16 %h.V}, i64 0, metadata !11723), !dbg !11586 ; [debug line = 121:88@121:104@67:15] [debug variable = h.V]
  call void @llvm.dbg.value(metadata !{i32 %i_op.assign.10}, i64 0, metadata !11707), !dbg !11731 ; [debug line = 3523:152@68:20] [debug variable = i_op]
  call void @llvm.dbg.value(metadata !{i32 %i_op.assign.10}, i64 0, metadata !11709), !dbg !11732 ; [debug line = 1521:66@3523:203@68:20] [debug variable = op]
  call void @llvm.dbg.value(metadata !{i32 %i_op.assign.10}, i64 0, metadata !11713), !dbg !11734 ; [debug line = 1521:66@1521:86@3523:203@68:20] [debug variable = op]
  call void @llvm.dbg.value(metadata !{i32 %i_op.assign.11}, i64 0, metadata !11716), !dbg !11736 ; [debug line = 3523:0@68:20] [debug variable = i_op]
  call void @llvm.dbg.value(metadata !{i32 %i_op.assign.11}, i64 0, metadata !11709), !dbg !11737 ; [debug line = 1521:66@3523:0@68:20] [debug variable = op]
  call void @llvm.dbg.value(metadata !{i32 %i_op.assign.11}, i64 0, metadata !11713), !dbg !11739 ; [debug line = 1521:66@1521:86@3523:0@68:20] [debug variable = op]
  %tmp.33 = trunc i32 %i_op.assign.11 to i16, !dbg !11600 ; [#uses=1 type=i16] [debug line = 121:88@121:104@68:20]
  %w.V = add i16 %tmp.32, %tmp.33, !dbg !11600    ; [#uses=3 type=i16] [debug line = 121:88@121:104@68:20]
  call void @llvm.dbg.value(metadata !{i16 %w.V}, i64 0, metadata !11741), !dbg !11600 ; [debug line = 121:88@121:104@68:20] [debug variable = w.V]
  %tmp.34 = or i16 %w.V, %h.V, !dbg !11743        ; [#uses=1 type=i16] [debug line = 78:20]
  %tmp.35 = icmp sgt i16 %tmp.34, -1, !dbg !11743 ; [#uses=1 type=i1] [debug line = 78:20]
  %tmp.36 = sext i16 %w.V to i32, !dbg !11631     ; [#uses=1 type=i32] [debug line = 2042:5@78:37]
  %tmp.37 = sext i16 %w.V to i64, !dbg !11699     ; [#uses=1 type=i64] [debug line = 2653:68@80:37]
  %lhs.V.11 = zext i32 %i_op.assign.11 to i48, !dbg !11744 ; [#uses=1 type=i48] [debug line = 1506:93@1506:109@3423:0@3523:203@81:54]
  %r.V.13 = mul nsw i48 %lhs.V.11, %rhs.V.12, !dbg !11746 ; [#uses=1 type=i48] [debug line = 3423:0@3523:203@81:54]
  %tmp.38 = zext i48 %r.V.13 to i64, !dbg !11700  ; [#uses=1 type=i64] [debug line = 2653:68@81:54]
  %tmp.43 = icmp slt i32 %tmp.36, %rhs.V.7, !dbg !11631 ; [#uses=1 type=i1] [debug line = 2042:5@78:37]
  br label %12, !dbg !11748                       ; [debug line = 70:21]

; <label>:12                                      ; preds = %.preheader.preheader, %11
  %.0807.2 = phi i40 [ %.0807.1, %11 ], [ %sum.V.7, %.preheader.preheader ] ; [#uses=2 type=i40]
  %i_op.assign = phi i32 [ 0, %11 ], [ %cin, %.preheader.preheader ] ; [#uses=4 type=i32]
  %exitcond3 = icmp eq i32 %i_op.assign, %tmp.6, !dbg !11749 ; [#uses=1 type=i1] [debug line = 70:26]
  br i1 %exitcond3, label %16, label %13, !dbg !11749 ; [debug line = 70:26]

; <label>:13                                      ; preds = %12
  %tmp.66 = call i32 (...)* @_ssdm_op_SpecRegionBegin([12 x i8]* @.str10), !dbg !11750 ; [#uses=1 type=i32] [debug line = 71:9]
  call void (...)* @_ssdm_op_SpecPipeline(i32 -1, i32 1, i32 1, i32 0, [1 x i8]* @.str1) nounwind, !dbg !11751 ; [debug line = 72:1]
  call void (...)* @_ssdm_op_SpecLoopTripCount(i32 4, i32 4, i32 4, [1 x i8]* @.str1) nounwind, !dbg !11752 ; [debug line = 73:1]
  %tmp.35.not = xor i1 %tmp.35, true, !dbg !11753 ; [#uses=1 type=i1] [debug line = 78:12]
  %tmp.42.not = xor i1 %tmp.42, true, !dbg !11753 ; [#uses=1 type=i1] [debug line = 78:12]
  %brmerge = or i1 %tmp.35.not, %tmp.42.not, !dbg !11753 ; [#uses=1 type=i1] [debug line = 78:12]
  %tmp.43.not = xor i1 %tmp.43, true, !dbg !11753 ; [#uses=1 type=i1] [debug line = 78:12]
  %brmerge1 = or i1 %brmerge, %tmp.43.not, !dbg !11753 ; [#uses=1 type=i1] [debug line = 78:12]
  br i1 %brmerge1, label %.preheader.preheader, label %14, !dbg !11753 ; [debug line = 78:12]

; <label>:14                                      ; preds = %13
  call void @llvm.dbg.value(metadata !{i32 %i_op.assign}, i64 0, metadata !11754), !dbg !11755 ; [debug line = 3523:152@80:25] [debug variable = i_op]
  call void @llvm.dbg.value(metadata !{i32 %i_op.assign}, i64 0, metadata !11709), !dbg !11756 ; [debug line = 1521:66@3523:203@80:25] [debug variable = op]
  call void @llvm.dbg.value(metadata !{i32 %i_op.assign}, i64 0, metadata !11713), !dbg !11757 ; [debug line = 1521:66@1521:86@3523:203@80:25] [debug variable = op]
  %lhs.V.12 = zext i32 %i_op.assign to i48, !dbg !11759 ; [#uses=1 type=i48] [debug line = 1506:93@1506:109@3423:0@3523:203@80:25]
  call void @llvm.dbg.value(metadata !{i48 %lhs.V.12}, i64 0, metadata !11761), !dbg !11759 ; [debug line = 1506:93@1506:109@3423:0@3523:203@80:25] [debug variable = lhs.V]
  call void @llvm.dbg.value(metadata !{i48 %rhs.V.8}, i64 0, metadata !11767), !dbg !11633 ; [debug line = 1506:93@1506:109@3423:0@3523:203@80:25] [debug variable = rhs.V]
  %r.V.14 = mul nsw i48 %rhs.V.8, %lhs.V.12, !dbg !11635 ; [#uses=1 type=i48] [debug line = 3423:0@3523:203@80:25]
  call void @llvm.dbg.value(metadata !{i48 %r.V.14}, i64 0, metadata !11769), !dbg !11635 ; [debug line = 3423:0@3523:203@80:25] [debug variable = r.V]
  %lhs.V.13 = zext i48 %r.V.14 to i64, !dbg !11772 ; [#uses=1 type=i64] [debug line = 1506:93@1506:109@3423:0@80:25]
  call void @llvm.dbg.value(metadata !{i64 %lhs.V.13}, i64 0, metadata !11774), !dbg !11772 ; [debug line = 1506:93@1506:109@3423:0@80:25] [debug variable = lhs.V]
  call void @llvm.dbg.value(metadata !{i64 %rhs.V.9}, i64 0, metadata !11780), !dbg !11638 ; [debug line = 1506:93@1506:109@3423:0@80:25] [debug variable = rhs.V]
  %r.V.15 = mul nsw i64 %rhs.V.9, %lhs.V.13, !dbg !11640 ; [#uses=1 type=i64] [debug line = 3423:0@80:25]
  call void @llvm.dbg.value(metadata !{i64 %r.V.15}, i64 0, metadata !11782), !dbg !11640 ; [debug line = 3423:0@80:25] [debug variable = r.V]
  call void @llvm.dbg.value(metadata !{i32 %lhs.V.10}, i64 0, metadata !11785), !dbg !11791 ; [debug line = 1506:93@1506:109@3423:0@80:37] [debug variable = lhs.V]
  call void @llvm.dbg.value(metadata !{i32 %rhs.V.7}, i64 0, metadata !11794), !dbg !11796 ; [debug line = 1506:93@1506:109@3423:0@80:37] [debug variable = rhs.V]
  call void @llvm.dbg.value(metadata !{i32 %r.V.16}, i64 0, metadata !11799), !dbg !11696 ; [debug line = 3423:0@80:37] [debug variable = r.V]
  %tmp.45 = add i64 %r.V.15, %tmp.37, !dbg !11699 ; [#uses=1 type=i64] [debug line = 2653:68@80:37]
  %tmp.46 = add i64 %tmp.45, %tmp.44, !dbg !11699 ; [#uses=1 type=i64] [debug line = 2653:68@80:37]
  %feature_in.V.addr = getelementptr i128* %feature_in.V, i64 %tmp.46, !dbg !11802 ; [#uses=1 type=i128*] [debug line = 174:5@80:37]
  %dat.V = load i128* %feature_in.V.addr, align 16, !dbg !11802 ; [#uses=1 type=i128] [debug line = 174:5@80:37]
  call void @llvm.dbg.value(metadata !{i128 %dat.V}, i64 0, metadata !11804), !dbg !11802 ; [debug line = 174:5@80:37] [debug variable = dat.V]
  call void @llvm.dbg.value(metadata !{i32 %i_op.assign.12}, i64 0, metadata !11754), !dbg !11806 ; [debug line = 3523:152@81:15] [debug variable = i_op]
  call void @llvm.dbg.value(metadata !{i32 %i_op.assign.12}, i64 0, metadata !11709), !dbg !11807 ; [debug line = 1521:66@3523:203@81:15] [debug variable = op]
  call void @llvm.dbg.value(metadata !{i32 %i_op.assign.12}, i64 0, metadata !11713), !dbg !11808 ; [debug line = 1521:66@1521:86@3523:203@81:15] [debug variable = op]
  call void @llvm.dbg.value(metadata !{i48 %lhs.V.15}, i64 0, metadata !11761), !dbg !11655 ; [debug line = 1506:93@1506:109@3423:0@3523:203@81:15] [debug variable = lhs.V]
  call void @llvm.dbg.value(metadata !{i48 %rhs.V.12}, i64 0, metadata !11767), !dbg !11603 ; [debug line = 1506:93@1506:109@3423:0@3523:203@81:15] [debug variable = rhs.V]
  call void @llvm.dbg.value(metadata !{i48 %r.V.2}, i64 0, metadata !11769), !dbg !11606 ; [debug line = 3423:0@3523:203@81:15] [debug variable = r.V]
  call void @llvm.dbg.value(metadata !{i56 %lhs.V.2}, i64 0, metadata !11810), !dbg !11658 ; [debug line = 1506:93@1506:109@3423:0@81:15] [debug variable = lhs.V]
  call void @llvm.dbg.value(metadata !{i56 %rhs.V.10}, i64 0, metadata !11816), !dbg !11641 ; [debug line = 1506:93@1506:109@3423:0@81:15] [debug variable = rhs.V]
  call void @llvm.dbg.value(metadata !{i56 %r.V.11}, i64 0, metadata !11818), !dbg !11644 ; [debug line = 3423:0@81:15] [debug variable = r.V]
  call void @llvm.dbg.value(metadata !{i64 %lhs.V.14}, i64 0, metadata !11821), !dbg !11667 ; [debug line = 1506:93@1506:109@3423:0@81:15] [debug variable = lhs.V]
  call void @llvm.dbg.value(metadata !{i64 %rhs.V.11}, i64 0, metadata !11823), !dbg !11646 ; [debug line = 1506:93@1506:109@3423:0@81:15] [debug variable = rhs.V]
  call void @llvm.dbg.value(metadata !{i64 %r.V.17}, i64 0, metadata !11825), !dbg !11649 ; [debug line = 3423:0@81:15] [debug variable = r.V]
  call void @llvm.dbg.value(metadata !{i32 %i_op.assign.9}, i64 0, metadata !11754), !dbg !11828 ; [debug line = 3523:152@81:37] [debug variable = i_op]
  call void @llvm.dbg.value(metadata !{i32 %i_op.assign.9}, i64 0, metadata !11709), !dbg !11829 ; [debug line = 1521:66@3523:203@81:37] [debug variable = op]
  call void @llvm.dbg.value(metadata !{i32 %i_op.assign.9}, i64 0, metadata !11713), !dbg !11830 ; [debug line = 1521:66@1521:86@3523:203@81:37] [debug variable = op]
  call void @llvm.dbg.value(metadata !{i48 %lhs.V.8}, i64 0, metadata !11761), !dbg !11688 ; [debug line = 1506:93@1506:109@3423:0@3523:203@81:37] [debug variable = lhs.V]
  call void @llvm.dbg.value(metadata !{i48 %r.V.12}, i64 0, metadata !11769), !dbg !11690 ; [debug line = 3423:0@3523:203@81:37] [debug variable = r.V]
  call void @llvm.dbg.value(metadata !{i56 %lhs.V.9}, i64 0, metadata !11810), !dbg !11693 ; [debug line = 1506:93@1506:109@3423:0@81:37] [debug variable = lhs.V]
  call void @llvm.dbg.value(metadata !{i56 %r.V.19}, i64 0, metadata !11818), !dbg !11695 ; [debug line = 3423:0@81:37] [debug variable = r.V]
  call void @llvm.dbg.value(metadata !{i32 %i_op.assign.11}, i64 0, metadata !11754), !dbg !11832 ; [debug line = 3523:152@81:54] [debug variable = i_op]
  call void @llvm.dbg.value(metadata !{i32 %i_op.assign.11}, i64 0, metadata !11709), !dbg !11833 ; [debug line = 1521:66@3523:203@81:54] [debug variable = op]
  call void @llvm.dbg.value(metadata !{i32 %i_op.assign.11}, i64 0, metadata !11713), !dbg !11834 ; [debug line = 1521:66@1521:86@3523:203@81:54] [debug variable = op]
  call void @llvm.dbg.value(metadata !{i48 %lhs.V.11}, i64 0, metadata !11761), !dbg !11744 ; [debug line = 1506:93@1506:109@3423:0@3523:203@81:54] [debug variable = lhs.V]
  call void @llvm.dbg.value(metadata !{i48 %r.V.13}, i64 0, metadata !11769), !dbg !11746 ; [debug line = 3423:0@3523:203@81:54] [debug variable = r.V]
  call void @llvm.dbg.value(metadata !{i32 %i_op.assign}, i64 0, metadata !11836), !dbg !11837 ; [debug line = 3523:0@81:54] [debug variable = i_op]
  %tmp.48 = zext i32 %i_op.assign to i64, !dbg !11700 ; [#uses=1 type=i64] [debug line = 2653:68@81:54]
  %tmp.49 = add i64 %tmp.48, %tmp.38, !dbg !11700 ; [#uses=1 type=i64] [debug line = 2653:68@81:54]
  %tmp.50 = add i64 %tmp.49, %tmp.47, !dbg !11700 ; [#uses=1 type=i64] [debug line = 2653:68@81:54]
  %tmp.51 = add i64 %tmp.50, %r.V.17, !dbg !11700 ; [#uses=1 type=i64] [debug line = 2653:68@81:54]
  %W.V.addr = getelementptr i128* %W.V, i64 %tmp.51, !dbg !11838 ; [#uses=1 type=i128*] [debug line = 174:5@81:54]
  %wt.V = load i128* %W.V.addr, align 16, !dbg !11838 ; [#uses=1 type=i128] [debug line = 174:5@81:54]
  call void @llvm.dbg.value(metadata !{i128 %wt.V}, i64 0, metadata !11839), !dbg !11838 ; [debug line = 174:5@81:54] [debug variable = wt.V]
  br label %.preheader.preheader, !dbg !11841     ; [debug line = 83:9]

.preheader.preheader:                             ; preds = %14, %13
  %__Val2__.2 = phi i128 [ %wt.V, %14 ], [ 0, %13 ] ; [#uses=8 type=i128]
  %__Val2__.1 = phi i128 [ %dat.V, %14 ], [ 0, %13 ] ; [#uses=8 type=i128]
  call void @llvm.dbg.value(metadata !{i128 %__Val2__.1}, i64 0, metadata !11842), !dbg !11845 ; [debug line = 941:79@1538:15@91:99@91:100@92:44] [debug variable = __Val2__]
  %__Result__.5 = call i16 @_ssdm_op_PartSelect.i16.i128.i32.i32(i128 %__Val2__.1, i32 0, i32 15), !dbg !11853 ; [#uses=1 type=i16] [debug line = 941:81@1538:15@91:99@91:100@92:44]
  call void @llvm.dbg.value(metadata !{i128 %__Val2__.2}, i64 0, metadata !11842), !dbg !11854 ; [debug line = 941:79@1538:15@91:99@91:100@92:79] [debug variable = __Val2__]
  %__Result__.6 = call i16 @_ssdm_op_PartSelect.i16.i128.i32.i32(i128 %__Val2__.2, i32 0, i32 15), !dbg !11859 ; [#uses=1 type=i16] [debug line = 941:81@1538:15@91:99@91:100@92:79]
  %lhs.V. = sext i16 %__Result__.5 to i32, !dbg !11860 ; [#uses=1 type=i32] [debug line = 1506:93@1506:109@3423:0@92:79]
  %rhs.V. = sext i16 %__Result__.6 to i32, !dbg !11860 ; [#uses=1 type=i32] [debug line = 1506:93@1506:109@3423:0@92:79]
  %r.V.20 = mul nsw i32 %lhs.V., %rhs.V., !dbg !11862 ; [#uses=1 type=i32] [debug line = 3423:0@92:79]
  %__Result__.5.1 = call i16 @_ssdm_op_PartSelect.i16.i128.i32.i32(i128 %__Val2__.1, i32 16, i32 31), !dbg !11853 ; [#uses=1 type=i16] [debug line = 941:81@1538:15@91:99@91:100@92:44]
  %__Result__.6.1 = call i16 @_ssdm_op_PartSelect.i16.i128.i32.i32(i128 %__Val2__.2, i32 16, i32 31), !dbg !11859 ; [#uses=1 type=i16] [debug line = 941:81@1538:15@91:99@91:100@92:79]
  %lhs.V.22.1 = sext i16 %__Result__.5.1 to i32, !dbg !11860 ; [#uses=1 type=i32] [debug line = 1506:93@1506:109@3423:0@92:79]
  %rhs.V.15.1 = sext i16 %__Result__.6.1 to i32, !dbg !11860 ; [#uses=1 type=i32] [debug line = 1506:93@1506:109@3423:0@92:79]
  %r.V.29.1 = mul nsw i32 %lhs.V.22.1, %rhs.V.15.1, !dbg !11862 ; [#uses=1 type=i32] [debug line = 3423:0@92:79]
  %__Result__.5.2 = call i16 @_ssdm_op_PartSelect.i16.i128.i32.i32(i128 %__Val2__.1, i32 32, i32 47), !dbg !11853 ; [#uses=1 type=i16] [debug line = 941:81@1538:15@91:99@91:100@92:44]
  %__Result__.6.2 = call i16 @_ssdm_op_PartSelect.i16.i128.i32.i32(i128 %__Val2__.2, i32 32, i32 47), !dbg !11859 ; [#uses=1 type=i16] [debug line = 941:81@1538:15@91:99@91:100@92:79]
  %lhs.V.22.2 = sext i16 %__Result__.5.2 to i32, !dbg !11860 ; [#uses=1 type=i32] [debug line = 1506:93@1506:109@3423:0@92:79]
  %rhs.V.15.2 = sext i16 %__Result__.6.2 to i32, !dbg !11860 ; [#uses=1 type=i32] [debug line = 1506:93@1506:109@3423:0@92:79]
  %r.V.29.2 = mul nsw i32 %lhs.V.22.2, %rhs.V.15.2, !dbg !11862 ; [#uses=1 type=i32] [debug line = 3423:0@92:79]
  %__Result__.5.3 = call i16 @_ssdm_op_PartSelect.i16.i128.i32.i32(i128 %__Val2__.1, i32 48, i32 63), !dbg !11853 ; [#uses=1 type=i16] [debug line = 941:81@1538:15@91:99@91:100@92:44]
  %__Result__.6.3 = call i16 @_ssdm_op_PartSelect.i16.i128.i32.i32(i128 %__Val2__.2, i32 48, i32 63), !dbg !11859 ; [#uses=1 type=i16] [debug line = 941:81@1538:15@91:99@91:100@92:79]
  %lhs.V.22.3 = sext i16 %__Result__.5.3 to i32, !dbg !11860 ; [#uses=1 type=i32] [debug line = 1506:93@1506:109@3423:0@92:79]
  %rhs.V.15.3 = sext i16 %__Result__.6.3 to i32, !dbg !11860 ; [#uses=1 type=i32] [debug line = 1506:93@1506:109@3423:0@92:79]
  %r.V.29.3 = mul nsw i32 %lhs.V.22.3, %rhs.V.15.3, !dbg !11862 ; [#uses=1 type=i32] [debug line = 3423:0@92:79]
  %__Result__.5.4 = call i16 @_ssdm_op_PartSelect.i16.i128.i32.i32(i128 %__Val2__.1, i32 64, i32 79), !dbg !11853 ; [#uses=1 type=i16] [debug line = 941:81@1538:15@91:99@91:100@92:44]
  %__Result__.6.4 = call i16 @_ssdm_op_PartSelect.i16.i128.i32.i32(i128 %__Val2__.2, i32 64, i32 79), !dbg !11859 ; [#uses=1 type=i16] [debug line = 941:81@1538:15@91:99@91:100@92:79]
  %lhs.V.22.4 = sext i16 %__Result__.5.4 to i32, !dbg !11860 ; [#uses=1 type=i32] [debug line = 1506:93@1506:109@3423:0@92:79]
  %rhs.V.15.4 = sext i16 %__Result__.6.4 to i32, !dbg !11860 ; [#uses=1 type=i32] [debug line = 1506:93@1506:109@3423:0@92:79]
  %r.V.29.4 = mul nsw i32 %lhs.V.22.4, %rhs.V.15.4, !dbg !11862 ; [#uses=1 type=i32] [debug line = 3423:0@92:79]
  %__Result__.5.5 = call i16 @_ssdm_op_PartSelect.i16.i128.i32.i32(i128 %__Val2__.1, i32 80, i32 95), !dbg !11853 ; [#uses=1 type=i16] [debug line = 941:81@1538:15@91:99@91:100@92:44]
  %__Result__.6.5 = call i16 @_ssdm_op_PartSelect.i16.i128.i32.i32(i128 %__Val2__.2, i32 80, i32 95), !dbg !11859 ; [#uses=1 type=i16] [debug line = 941:81@1538:15@91:99@91:100@92:79]
  %lhs.V.22.5 = sext i16 %__Result__.5.5 to i32, !dbg !11860 ; [#uses=1 type=i32] [debug line = 1506:93@1506:109@3423:0@92:79]
  %rhs.V.15.5 = sext i16 %__Result__.6.5 to i32, !dbg !11860 ; [#uses=1 type=i32] [debug line = 1506:93@1506:109@3423:0@92:79]
  %r.V.29.5 = mul nsw i32 %lhs.V.22.5, %rhs.V.15.5, !dbg !11862 ; [#uses=1 type=i32] [debug line = 3423:0@92:79]
  %__Result__.5.6 = call i16 @_ssdm_op_PartSelect.i16.i128.i32.i32(i128 %__Val2__.1, i32 96, i32 111), !dbg !11853 ; [#uses=1 type=i16] [debug line = 941:81@1538:15@91:99@91:100@92:44]
  %__Result__.6.6 = call i16 @_ssdm_op_PartSelect.i16.i128.i32.i32(i128 %__Val2__.2, i32 96, i32 111), !dbg !11859 ; [#uses=1 type=i16] [debug line = 941:81@1538:15@91:99@91:100@92:79]
  %lhs.V.22.6 = sext i16 %__Result__.5.6 to i32, !dbg !11860 ; [#uses=1 type=i32] [debug line = 1506:93@1506:109@3423:0@92:79]
  %rhs.V.15.6 = sext i16 %__Result__.6.6 to i32, !dbg !11860 ; [#uses=1 type=i32] [debug line = 1506:93@1506:109@3423:0@92:79]
  %r.V.29.6 = mul nsw i32 %lhs.V.22.6, %rhs.V.15.6, !dbg !11862 ; [#uses=1 type=i32] [debug line = 3423:0@92:79]
  %__Result__.5.7 = call i16 @_ssdm_op_PartSelect.i16.i128.i32.i32(i128 %__Val2__.1, i32 112, i32 127), !dbg !11853 ; [#uses=1 type=i16] [debug line = 941:81@1538:15@91:99@91:100@92:44]
  %__Result__.6.7 = call i16 @_ssdm_op_PartSelect.i16.i128.i32.i32(i128 %__Val2__.2, i32 112, i32 127), !dbg !11859 ; [#uses=1 type=i16] [debug line = 941:81@1538:15@91:99@91:100@92:79]
  %lhs.V.22.7 = sext i16 %__Result__.5.7 to i32, !dbg !11860 ; [#uses=1 type=i32] [debug line = 1506:93@1506:109@3423:0@92:79]
  %rhs.V.15.7 = sext i16 %__Result__.6.7 to i32, !dbg !11860 ; [#uses=1 type=i32] [debug line = 1506:93@1506:109@3423:0@92:79]
  %r.V.29.7 = mul nsw i32 %lhs.V.22.7, %rhs.V.15.7, !dbg !11862 ; [#uses=1 type=i32] [debug line = 3423:0@92:79]
  %tmp.67 = sext i32 %r.V.20 to i40, !dbg !11864  ; [#uses=1 type=i40] [debug line = 1879:145@96:26]
  %sum.V = add nsw i40 %.0807.2, %tmp.67, !dbg !11864 ; [#uses=1 type=i40] [debug line = 1879:145@96:26]
  %tmp.53.1 = sext i32 %r.V.29.1 to i40, !dbg !11864 ; [#uses=1 type=i40] [debug line = 1879:145@96:26]
  %sum.V.1 = add nsw i40 %sum.V, %tmp.53.1, !dbg !11864 ; [#uses=1 type=i40] [debug line = 1879:145@96:26]
  %tmp.53.2 = sext i32 %r.V.29.2 to i40, !dbg !11864 ; [#uses=1 type=i40] [debug line = 1879:145@96:26]
  %sum.V.2 = add nsw i40 %sum.V.1, %tmp.53.2, !dbg !11864 ; [#uses=1 type=i40] [debug line = 1879:145@96:26]
  %tmp.53.3 = sext i32 %r.V.29.3 to i40, !dbg !11864 ; [#uses=1 type=i40] [debug line = 1879:145@96:26]
  %sum.V.3 = add nsw i40 %sum.V.2, %tmp.53.3, !dbg !11864 ; [#uses=1 type=i40] [debug line = 1879:145@96:26]
  %tmp.53.4 = sext i32 %r.V.29.4 to i40, !dbg !11864 ; [#uses=1 type=i40] [debug line = 1879:145@96:26]
  %sum.V.4 = add nsw i40 %sum.V.3, %tmp.53.4, !dbg !11864 ; [#uses=1 type=i40] [debug line = 1879:145@96:26]
  %tmp.53.5 = sext i32 %r.V.29.5 to i40, !dbg !11864 ; [#uses=1 type=i40] [debug line = 1879:145@96:26]
  %sum.V.5 = add nsw i40 %sum.V.4, %tmp.53.5, !dbg !11864 ; [#uses=1 type=i40] [debug line = 1879:145@96:26]
  %tmp.53.6 = sext i32 %r.V.29.6 to i40, !dbg !11864 ; [#uses=1 type=i40] [debug line = 1879:145@96:26]
  %sum.V.6 = add nsw i40 %sum.V.5, %tmp.53.6, !dbg !11864 ; [#uses=1 type=i40] [debug line = 1879:145@96:26]
  %tmp.53.7 = sext i32 %r.V.29.7 to i40, !dbg !11864 ; [#uses=1 type=i40] [debug line = 1879:145@96:26]
  %sum.V.7 = add nsw i40 %sum.V.6, %tmp.53.7, !dbg !11864 ; [#uses=1 type=i40] [debug line = 1879:145@96:26]
  %15 = call i32 (...)* @_ssdm_op_SpecRegionEnd([12 x i8]* @.str10, i32 %tmp.66), !dbg !11869 ; [#uses=0 type=i32] [debug line = 100:8]
  %cin = add nsw i32 %i_op.assign, 1, !dbg !11870 ; [#uses=1 type=i32] [debug line = 70:37]
  call void @llvm.dbg.value(metadata !{i32 %cin}, i64 0, metadata !11871), !dbg !11870 ; [debug line = 70:37] [debug variable = cin]
  br label %12, !dbg !11870                       ; [debug line = 70:37]

; <label>:16                                      ; preds = %12
  %.0807.2.lcssa = phi i40 [ %.0807.2, %12 ]      ; [#uses=1 type=i40]
  %17 = call i32 (...)* @_ssdm_op_SpecRegionEnd([12 x i8]* @.str9, i32 %tmp.65), !dbg !11872 ; [#uses=0 type=i32] [debug line = 102:6]
  %jj = add nsw i32 %i_op.assign.11, 1, !dbg !11873 ; [#uses=1 type=i32] [debug line = 64:21]
  call void @llvm.dbg.value(metadata !{i32 %jj}, i64 0, metadata !11874), !dbg !11873 ; [debug line = 64:21] [debug variable = jj]
  br label %10, !dbg !11873                       ; [debug line = 64:21]

; <label>:18                                      ; preds = %10
  %.0807.1.lcssa = phi i40 [ %.0807.1, %10 ]      ; [#uses=1 type=i40]
  %19 = call i32 (...)* @_ssdm_op_SpecRegionEnd([12 x i8]* @.str8, i32 %tmp.64), !dbg !11875 ; [#uses=0 type=i32] [debug line = 103:5]
  %ii = add nsw i32 %i_op.assign.9, 1, !dbg !11876 ; [#uses=1 type=i32] [debug line = 61:24]
  call void @llvm.dbg.value(metadata !{i32 %ii}, i64 0, metadata !11877), !dbg !11876 ; [debug line = 61:24] [debug variable = ii]
  br label %8, !dbg !11876                        ; [debug line = 61:24]

; <label>:20                                      ; preds = %8
  %.3.lcssa = phi i40 [ %.3, %8 ]                 ; [#uses=2 type=i40]
  call void @llvm.dbg.value(metadata !{i1 %relu_en.V}, i64 0, metadata !11878), !dbg !11885 ; [debug line = 3432:0@3517:0@107:18] [debug variable = lhs.V]
  %.0807.0.lobit = lshr i40 %.3.lcssa, 39, !dbg !11885 ; [#uses=1 type=i40] [debug line = 3432:0@3517:0@107:18]
  %tmp.20 = trunc i40 %.0807.0.lobit to i1, !dbg !11885 ; [#uses=1 type=i1] [debug line = 3432:0@3517:0@107:18]
  %r.V.10 = and i1 %tmp.20, %relu_en.V, !dbg !11885 ; [#uses=1 type=i1] [debug line = 3432:0@3517:0@107:18]
  call void @llvm.dbg.value(metadata !{i1 %r.V.10}, i64 0, metadata !11889), !dbg !11885 ; [debug line = 3432:0@3517:0@107:18] [debug variable = r.V]
  %.. = select i1 %r.V.10, i40 0, i40 %.3.lcssa, !dbg !11888 ; [#uses=1 type=i40] [debug line = 107:18]
  %r.V.21 = ashr i40 %.., %tmp.10, !dbg !11615    ; [#uses=3 type=i40] [debug line = 1972:22@110:19]
  call void @llvm.dbg.value(metadata !{i40 %r.V.21}, i64 0, metadata !11892), !dbg !11615 ; [debug line = 1972:22@110:19] [debug variable = r.V]
  call void @llvm.dbg.value(metadata !{i40 %r.V.21}, i64 0, metadata !11898), !dbg !11903 ; [debug line = 121:88@121:104@110:19] [debug variable = res.V]
  %tmp.22 = icmp sgt i40 %r.V.21, 32767, !dbg !11906 ; [#uses=1 type=i1] [debug line = 2050:5@3559:0@113:8]
  br i1 %tmp.22, label %._crit_edge1633, label %21, !dbg !11910 ; [debug line = 113:8]

; <label>:21                                      ; preds = %20
  %tmp.23 = icmp slt i40 %r.V.21, -32768, !dbg !11911 ; [#uses=1 type=i1] [debug line = 2042:5@3559:0@116:9]
  %. = select i1 %tmp.23, i40 -32768, i40 %r.V.21, !dbg !11915 ; [#uses=1 type=i40] [debug line = 116:9]
  br label %._crit_edge1633

._crit_edge1633:                                  ; preds = %21, %20
  %.0247.1 = phi i40 [ %., %21 ], [ 32767, %20 ]  ; [#uses=1 type=i40]
  call void @llvm.dbg.value(metadata !{i48 %lhs.V.3}, i64 0, metadata !11761), !dbg !11661 ; [debug line = 1506:93@1506:109@3423:0@3523:203@123:17] [debug variable = lhs.V]
  call void @llvm.dbg.value(metadata !{i48 %rhs.V.2}, i64 0, metadata !11767), !dbg !11618 ; [debug line = 1506:93@1506:109@3423:0@3523:203@123:17] [debug variable = rhs.V]
  call void @llvm.dbg.value(metadata !{i48 %r.V.3}, i64 0, metadata !11769), !dbg !11620 ; [debug line = 3423:0@3523:203@123:17] [debug variable = r.V]
  call void @llvm.dbg.value(metadata !{i64 %lhs.V.4}, i64 0, metadata !11774), !dbg !11663 ; [debug line = 1506:93@1506:109@3423:0@123:17] [debug variable = lhs.V]
  call void @llvm.dbg.value(metadata !{i64 %rhs.V.5}, i64 0, metadata !11780), !dbg !11623 ; [debug line = 1506:93@1506:109@3423:0@123:17] [debug variable = rhs.V]
  call void @llvm.dbg.value(metadata !{i64 %r.V.4}, i64 0, metadata !11782), !dbg !11626 ; [debug line = 3423:0@123:17] [debug variable = r.V]
  call void @llvm.dbg.value(metadata !{i32 %i_op.assign.8}, i64 0, metadata !11754), !dbg !11916 ; [debug line = 3523:152@123:36] [debug variable = i_op]
  call void @llvm.dbg.value(metadata !{i32 %i_op.assign.8}, i64 0, metadata !11709), !dbg !11917 ; [debug line = 1521:66@3523:203@123:36] [debug variable = op]
  call void @llvm.dbg.value(metadata !{i32 %i_op.assign.8}, i64 0, metadata !11713), !dbg !11918 ; [debug line = 1521:66@1521:86@3523:203@123:36] [debug variable = op]
  call void @llvm.dbg.value(metadata !{i48 %lhs.V.6}, i64 0, metadata !11761), !dbg !11674 ; [debug line = 1506:93@1506:109@3423:0@3523:203@123:36] [debug variable = lhs.V]
  call void @llvm.dbg.value(metadata !{i48 %r.V.8}, i64 0, metadata !11769), !dbg !11676 ; [debug line = 3423:0@3523:203@123:36] [debug variable = r.V]
  call void @llvm.dbg.value(metadata !{i32 %i_op.assign.10}, i64 0, metadata !11920), !dbg !11921 ; [debug line = 3523:0@123:36] [debug variable = i_op]
  call void @llvm.dbg.value(metadata !{i32 %i_op.assign.10}, i64 0, metadata !11709), !dbg !11922 ; [debug line = 1521:66@3523:0@123:36] [debug variable = op]
  call void @llvm.dbg.value(metadata !{i32 %i_op.assign.10}, i64 0, metadata !11713), !dbg !11925 ; [debug line = 1521:66@1521:86@3523:0@123:36] [debug variable = op]
  %tmp.26 = zext i32 %i_op.assign.10 to i64, !dbg !11678 ; [#uses=1 type=i64] [debug line = 2653:68@123:36]
  %tmp.40 = add i64 %tmp.39, %tmp.26, !dbg !11678 ; [#uses=1 type=i64] [debug line = 2653:68@123:36]
  call void @llvm.dbg.value(metadata !{i32 %Hi.assign}, i64 0, metadata !11927), !dbg !11928 ; [debug line = 3008:14@123:36] [debug variable = Hi]
  call void @llvm.dbg.value(metadata !{i32 %Lo.assign}, i64 0, metadata !11929), !dbg !11930 ; [debug line = 3008:22@123:36] [debug variable = Lo]
  call void @llvm.dbg.value(metadata !{i32 %Hi.assign}, i64 0, metadata !11931), !dbg !11932 ; [debug line = 934:88@3010:5@123:36] [debug variable = h]
  call void @llvm.dbg.value(metadata !{i32 %Lo.assign}, i64 0, metadata !11935), !dbg !11936 ; [debug line = 934:95@3010:5@123:36] [debug variable = l]
  call void @llvm.dbg.value(metadata !{i32 %Hi.assign}, i64 0, metadata !11937), !dbg !11938 ; [debug line = 934:88@937:3@3010:5@123:36] [debug variable = h]
  call void @llvm.dbg.value(metadata !{i32 %Lo.assign}, i64 0, metadata !11940), !dbg !11941 ; [debug line = 934:95@937:3@3010:5@123:36] [debug variable = l]
  %loc.V = sext i40 %.0247.1 to i128, !dbg !11942 ; [#uses=1 type=i128] [debug line = 2448:93@2448:109@957:39@123:36]
  call void @llvm.dbg.value(metadata !{i128 %loc.V}, i64 0, metadata !11947), !dbg !11942 ; [debug line = 2448:93@2448:109@957:39@123:36] [debug variable = loc.V]
  %feature_out.V.addr = getelementptr i128* %feature_out.V, i64 %tmp.40, !dbg !11953 ; [#uses=2 type=i128*] [debug line = 958:80@123:36]
  %__Val2__ = load i128* %feature_out.V.addr, align 16, !dbg !11953 ; [#uses=1 type=i128] [debug line = 958:80@123:36]
  call void @llvm.dbg.value(metadata !{i128 %__Val2__}, i64 0, metadata !11955), !dbg !11953 ; [debug line = 958:80@123:36] [debug variable = __Val2__]
  call void @llvm.dbg.value(metadata !{i128 %loc.V}, i64 0, metadata !11956), !dbg !11957 ; [debug line = 958:113@123:36] [debug variable = __Repl2__]
  %__Result__ = call i128 @llvm.part.set.i128.i128(i128 %__Val2__, i128 %loc.V, i32 %Lo.assign, i32 %Hi.assign) nounwind, !dbg !11958 ; [#uses=1 type=i128] [debug line = 958:115@123:36]
  call void @llvm.dbg.value(metadata !{i128 %__Result__}, i64 0, metadata !11959), !dbg !11958 ; [debug line = 958:115@123:36] [debug variable = __Result__]
  store i128 %__Result__, i128* %feature_out.V.addr, align 16, !dbg !11960 ; [debug line = 958:232@123:36]
  %22 = call i32 (...)* @_ssdm_op_SpecRegionEnd([12 x i8]* @.str7, i32 %tmp.63), !dbg !11961 ; [#uses=0 type=i32] [debug line = 124:4]
  %j = add nsw i32 %i_op.assign.10, 1, !dbg !11962 ; [#uses=1 type=i32] [debug line = 57:21]
  call void @llvm.dbg.value(metadata !{i32 %j}, i64 0, metadata !11963), !dbg !11962 ; [debug line = 57:21] [debug variable = j]
  br label %6, !dbg !11962                        ; [debug line = 57:21]

; <label>:23                                      ; preds = %6
  %24 = call i32 (...)* @_ssdm_op_SpecRegionEnd([12 x i8]* @.str6, i32 %tmp.62), !dbg !11964 ; [#uses=0 type=i32] [debug line = 125:3]
  %i = add nsw i32 %i_op.assign.8, 1, !dbg !11965 ; [#uses=1 type=i32] [debug line = 54:21]
  call void @llvm.dbg.value(metadata !{i32 %i}, i64 0, metadata !11966), !dbg !11965 ; [debug line = 54:21] [debug variable = i]
  br label %4, !dbg !11965                        ; [debug line = 54:21]

; <label>:25                                      ; preds = %4
  %26 = call i32 (...)* @_ssdm_op_SpecRegionEnd([12 x i8]* @.str5, i32 %tmp.59), !dbg !11967 ; [#uses=0 type=i32] [debug line = 126:2]
  %cout = add nsw i32 %i_op.assign.12, 1, !dbg !11968 ; [#uses=1 type=i32] [debug line = 51:28]
  call void @llvm.dbg.value(metadata !{i32 %cout}, i64 0, metadata !11969), !dbg !11968 ; [debug line = 51:28] [debug variable = cout]
  br label %2, !dbg !11968                        ; [debug line = 51:28]

; <label>:27                                      ; preds = %2
  ret void, !dbg !11970                           ; [debug line = 127:1]
}

; [#uses=0]
declare i32 @._ssdm_op_SpecChannel(...)

!llvm.dbg.cu = !{!0}
!opencl.kernels = !{!11215, !11222, !11228, !11228, !11230, !11236, !11242, !11242, !11230, !11244, !11230, !11230, !11230, !11247, !11247, !11249, !11249, !11251, !11230, !11230, !11230, !11253, !11253, !11255, !11255, !11257, !11257, !11230, !11230, !11259, !11261, !11228, !11228, !11230, !11230, !11263, !11230, !11230, !11265, !11230, !11266, !11268, !11268, !11230, !11270, !11230, !11230, !11259, !11261, !11261, !11272, !11272, !11272, !11230, !11230, !11230, !11230, !11275, !11247, !11247, !11276, !11230, !11230, !11278, !11278, !11280, !11280, !11280, !11230, !11230, !11230, !11282, !11285, !11285, !11282, !11291, !11291, !11293, !11293, !11230, !11230, !11230, !11294, !11296, !11230, !11230, !11230, !11247, !11247, !11298, !11298, !11300, !11253, !11253, !11302, !11304, !11304, !11306, !11230, !11230, !11230, !11308, !11308, !11304, !11304, !11310, !11230, !11230, !11230, !11308, !11308, !11253, !11253, !11312, !11230, !11314, !11278, !11278, !11316, !11247, !11247, !11318, !11320, !11320, !11322, !11320, !11320, !11253, !11253, !11324, !11327, !11230, !11230, !11230, !11320, !11320, !11247, !11247, !11329, !11330, !11261, !11230, !11230, !11230, !11230, !11230, !11230, !11332, !11332, !11334, !11336, !11230, !11230, !11230, !11247, !11247, !11338, !11338, !11340, !11230, !11230, !11230, !11308, !11308, !11228, !11228, !11230, !11293, !11293, !11230, !11342, !11342, !11230, !11230, !11344, !11346, !11348, !11230, !11230, !11230, !11247, !11247, !11332, !11332, !11350, !11352, !11308, !11308, !11354, !11320, !11320, !11356, !11358, !11308, !11308, !11247, !11247, !11230, !11230, !11360, !11360, !11230, !11230, !11362, !11364, !11230, !11230, !11230, !11366, !11368, !11230, !11230, !11230, !11247, !11247, !11308, !11308, !11293, !11293, !11370, !11372, !11261, !11374, !11374, !11230, !11230, !11376, !11378, !11230, !11230, !11230, !11380, !11380, !11382, !11382, !11383, !11230, !11380, !11380, !11230, !11230, !11385, !11385, !11387, !11389, !11230, !11230, !11230, !11362, !11364, !11247, !11247, !11391, !11391, !11393, !11395, !11320, !11320, !11230, !11230}
!hls.encrypted.func = !{}
!llvm.map.gv = !{!11397}

!0 = metadata !{i32 786449, i32 0, i32 4, metadata !"C:/Users/caiyujie/Desktop/gongkaike_hls/code/day6/conv_core/solution1/.autopilot/db/conv_core.pragma.2.cpp", metadata !"C:\5CUsers\5Ccaiyujie\5CDesktop\5Cgongkaike_hls\5Ccode\5Cday6", metadata !"clang version 3.1 ", i1 true, i1 false, metadata !"", i32 0, metadata !1, metadata !881, metadata !883, metadata !9409} ; [ DW_TAG_compile_unit ]
!1 = metadata !{metadata !2}
!2 = metadata !{metadata !3, metadata !26, metadata !33, metadata !42, metadata !48, metadata !874}
!3 = metadata !{i32 786436, metadata !4, metadata !"_Ios_Fmtflags", metadata !5, i32 59, i64 17, i64 32, i32 0, i32 0, null, metadata !6, i32 0, i32 0} ; [ DW_TAG_enumeration_type ]
!4 = metadata !{i32 786489, null, metadata !"std", metadata !5, i32 53} ; [ DW_TAG_namespace ]
!5 = metadata !{i32 786473, metadata !"C:/Xilinx/Vivado/2018.1/win64/tools/clang/bin\5C..\5Clib\5Cclang\5C3.1/../../../include/c++/4.5.2\5Cbits/ios_base.h", metadata !"C:\5CUsers\5Ccaiyujie\5CDesktop\5Cgongkaike_hls\5Ccode\5Cday6", null} ; [ DW_TAG_file_type ]
!6 = metadata !{metadata !7, metadata !8, metadata !9, metadata !10, metadata !11, metadata !12, metadata !13, metadata !14, metadata !15, metadata !16, metadata !17, metadata !18, metadata !19, metadata !20, metadata !21, metadata !22, metadata !23, metadata !24, metadata !25}
!7 = metadata !{i32 786472, metadata !"_S_boolalpha", i64 1} ; [ DW_TAG_enumerator ]
!8 = metadata !{i32 786472, metadata !"_S_dec", i64 2} ; [ DW_TAG_enumerator ]
!9 = metadata !{i32 786472, metadata !"_S_fixed", i64 4} ; [ DW_TAG_enumerator ]
!10 = metadata !{i32 786472, metadata !"_S_hex", i64 8} ; [ DW_TAG_enumerator ]
!11 = metadata !{i32 786472, metadata !"_S_internal", i64 16} ; [ DW_TAG_enumerator ]
!12 = metadata !{i32 786472, metadata !"_S_left", i64 32} ; [ DW_TAG_enumerator ]
!13 = metadata !{i32 786472, metadata !"_S_oct", i64 64} ; [ DW_TAG_enumerator ]
!14 = metadata !{i32 786472, metadata !"_S_right", i64 128} ; [ DW_TAG_enumerator ]
!15 = metadata !{i32 786472, metadata !"_S_scientific", i64 256} ; [ DW_TAG_enumerator ]
!16 = metadata !{i32 786472, metadata !"_S_showbase", i64 512} ; [ DW_TAG_enumerator ]
!17 = metadata !{i32 786472, metadata !"_S_showpoint", i64 1024} ; [ DW_TAG_enumerator ]
!18 = metadata !{i32 786472, metadata !"_S_showpos", i64 2048} ; [ DW_TAG_enumerator ]
!19 = metadata !{i32 786472, metadata !"_S_skipws", i64 4096} ; [ DW_TAG_enumerator ]
!20 = metadata !{i32 786472, metadata !"_S_unitbuf", i64 8192} ; [ DW_TAG_enumerator ]
!21 = metadata !{i32 786472, metadata !"_S_uppercase", i64 16384} ; [ DW_TAG_enumerator ]
!22 = metadata !{i32 786472, metadata !"_S_adjustfield", i64 176} ; [ DW_TAG_enumerator ]
!23 = metadata !{i32 786472, metadata !"_S_basefield", i64 74} ; [ DW_TAG_enumerator ]
!24 = metadata !{i32 786472, metadata !"_S_floatfield", i64 260} ; [ DW_TAG_enumerator ]
!25 = metadata !{i32 786472, metadata !"_S_ios_fmtflags_end", i64 65536} ; [ DW_TAG_enumerator ]
!26 = metadata !{i32 786436, metadata !4, metadata !"_Ios_Iostate", metadata !5, i32 151, i64 17, i64 32, i32 0, i32 0, null, metadata !27, i32 0, i32 0} ; [ DW_TAG_enumeration_type ]
!27 = metadata !{metadata !28, metadata !29, metadata !30, metadata !31, metadata !32}
!28 = metadata !{i32 786472, metadata !"_S_goodbit", i64 0} ; [ DW_TAG_enumerator ]
!29 = metadata !{i32 786472, metadata !"_S_badbit", i64 1} ; [ DW_TAG_enumerator ]
!30 = metadata !{i32 786472, metadata !"_S_eofbit", i64 2} ; [ DW_TAG_enumerator ]
!31 = metadata !{i32 786472, metadata !"_S_failbit", i64 4} ; [ DW_TAG_enumerator ]
!32 = metadata !{i32 786472, metadata !"_S_ios_iostate_end", i64 65536} ; [ DW_TAG_enumerator ]
!33 = metadata !{i32 786436, metadata !4, metadata !"_Ios_Openmode", metadata !5, i32 111, i64 17, i64 32, i32 0, i32 0, null, metadata !34, i32 0, i32 0} ; [ DW_TAG_enumeration_type ]
!34 = metadata !{metadata !35, metadata !36, metadata !37, metadata !38, metadata !39, metadata !40, metadata !41}
!35 = metadata !{i32 786472, metadata !"_S_app", i64 1} ; [ DW_TAG_enumerator ]
!36 = metadata !{i32 786472, metadata !"_S_ate", i64 2} ; [ DW_TAG_enumerator ]
!37 = metadata !{i32 786472, metadata !"_S_bin", i64 4} ; [ DW_TAG_enumerator ]
!38 = metadata !{i32 786472, metadata !"_S_in", i64 8} ; [ DW_TAG_enumerator ]
!39 = metadata !{i32 786472, metadata !"_S_out", i64 16} ; [ DW_TAG_enumerator ]
!40 = metadata !{i32 786472, metadata !"_S_trunc", i64 32} ; [ DW_TAG_enumerator ]
!41 = metadata !{i32 786472, metadata !"_S_ios_openmode_end", i64 65536} ; [ DW_TAG_enumerator ]
!42 = metadata !{i32 786436, metadata !4, metadata !"_Ios_Seekdir", metadata !5, i32 188, i64 17, i64 32, i32 0, i32 0, null, metadata !43, i32 0, i32 0} ; [ DW_TAG_enumeration_type ]
!43 = metadata !{metadata !44, metadata !45, metadata !46, metadata !47}
!44 = metadata !{i32 786472, metadata !"_S_beg", i64 0} ; [ DW_TAG_enumerator ]
!45 = metadata !{i32 786472, metadata !"_S_cur", i64 1} ; [ DW_TAG_enumerator ]
!46 = metadata !{i32 786472, metadata !"_S_end", i64 2} ; [ DW_TAG_enumerator ]
!47 = metadata !{i32 786472, metadata !"_S_ios_seekdir_end", i64 65536} ; [ DW_TAG_enumerator ]
!48 = metadata !{i32 786436, metadata !49, metadata !"event", metadata !5, i32 426, i64 2, i64 2, i32 0, i32 0, null, metadata !870, i32 0, i32 0} ; [ DW_TAG_enumeration_type ]
!49 = metadata !{i32 786434, metadata !4, metadata !"ios_base", metadata !5, i32 206, i64 1728, i64 64, i32 0, i32 0, null, metadata !50, i32 0, metadata !49, null} ; [ DW_TAG_class_type ]
!50 = metadata !{metadata !51, metadata !57, metadata !63, metadata !64, metadata !66, metadata !68, metadata !69, metadata !95, metadata !106, metadata !110, metadata !111, metadata !113, metadata !802, metadata !806, metadata !809, metadata !812, metadata !816, metadata !817, metadata !822, metadata !825, metadata !826, metadata !829, metadata !832, metadata !835, metadata !838, metadata !839, metadata !840, metadata !843, metadata !846, metadata !849, metadata !852, metadata !853, metadata !857, metadata !861, metadata !862, metadata !863, metadata !867}
!51 = metadata !{i32 786445, metadata !5, metadata !"_vptr$ios_base", metadata !5, i32 0, i64 64, i64 0, i64 0, i32 0, metadata !52} ; [ DW_TAG_member ]
!52 = metadata !{i32 786447, null, metadata !"", null, i32 0, i64 64, i64 0, i64 0, i32 0, metadata !53} ; [ DW_TAG_pointer_type ]
!53 = metadata !{i32 786447, null, metadata !"__vtbl_ptr_type", null, i32 0, i64 64, i64 0, i64 0, i32 0, metadata !54} ; [ DW_TAG_pointer_type ]
!54 = metadata !{i32 786453, i32 0, metadata !"", i32 0, i32 0, i64 0, i64 0, i64 0, i32 0, null, metadata !55, i32 0, i32 0} ; [ DW_TAG_subroutine_type ]
!55 = metadata !{metadata !56}
!56 = metadata !{i32 786468, null, metadata !"int", null, i32 0, i64 32, i64 32, i64 0, i32 0, i32 5} ; [ DW_TAG_base_type ]
!57 = metadata !{i32 786445, metadata !49, metadata !"_M_precision", metadata !5, i32 459, i64 64, i64 64, i64 64, i32 2, metadata !58} ; [ DW_TAG_member ]
!58 = metadata !{i32 786454, metadata !59, metadata !"streamsize", metadata !5, i32 97, i64 0, i64 0, i64 0, i32 0, metadata !61} ; [ DW_TAG_typedef ]
!59 = metadata !{i32 786489, null, metadata !"std", metadata !60, i32 69} ; [ DW_TAG_namespace ]
!60 = metadata !{i32 786473, metadata !"C:/Xilinx/Vivado/2018.1/win64/tools/clang/bin\5C..\5Clib\5Cclang\5C3.1/../../../include/c++/4.5.2\5Cbits/postypes.h", metadata !"C:\5CUsers\5Ccaiyujie\5CDesktop\5Cgongkaike_hls\5Ccode\5Cday6", null} ; [ DW_TAG_file_type ]
!61 = metadata !{i32 786454, null, metadata !"ptrdiff_t", metadata !5, i32 31, i64 0, i64 0, i64 0, i32 0, metadata !62} ; [ DW_TAG_typedef ]
!62 = metadata !{i32 786468, null, metadata !"long long int", null, i32 0, i64 64, i64 64, i64 0, i32 0, i32 5} ; [ DW_TAG_base_type ]
!63 = metadata !{i32 786445, metadata !49, metadata !"_M_width", metadata !5, i32 460, i64 64, i64 64, i64 128, i32 2, metadata !58} ; [ DW_TAG_member ]
!64 = metadata !{i32 786445, metadata !49, metadata !"_M_flags", metadata !5, i32 461, i64 17, i64 32, i64 192, i32 2, metadata !65} ; [ DW_TAG_member ]
!65 = metadata !{i32 786454, metadata !49, metadata !"fmtflags", metadata !5, i32 262, i64 0, i64 0, i64 0, i32 0, metadata !3} ; [ DW_TAG_typedef ]
!66 = metadata !{i32 786445, metadata !49, metadata !"_M_exception", metadata !5, i32 462, i64 17, i64 32, i64 224, i32 2, metadata !67} ; [ DW_TAG_member ]
!67 = metadata !{i32 786454, metadata !49, metadata !"iostate", metadata !5, i32 337, i64 0, i64 0, i64 0, i32 0, metadata !26} ; [ DW_TAG_typedef ]
!68 = metadata !{i32 786445, metadata !49, metadata !"_M_streambuf_state", metadata !5, i32 463, i64 17, i64 32, i64 256, i32 2, metadata !67} ; [ DW_TAG_member ]
!69 = metadata !{i32 786445, metadata !49, metadata !"_M_callbacks", metadata !5, i32 488, i64 64, i64 64, i64 320, i32 2, metadata !70} ; [ DW_TAG_member ]
!70 = metadata !{i32 786447, null, metadata !"", null, i32 0, i64 64, i64 64, i64 0, i32 0, metadata !71} ; [ DW_TAG_pointer_type ]
!71 = metadata !{i32 786434, metadata !49, metadata !"_Callback_list", metadata !5, i32 467, i64 192, i64 64, i32 0, i32 0, null, metadata !72, i32 0, null, null} ; [ DW_TAG_class_type ]
!72 = metadata !{metadata !73, metadata !74, metadata !80, metadata !81, metadata !83, metadata !89, metadata !92}
!73 = metadata !{i32 786445, metadata !71, metadata !"_M_next", metadata !5, i32 470, i64 64, i64 64, i64 0, i32 0, metadata !70} ; [ DW_TAG_member ]
!74 = metadata !{i32 786445, metadata !71, metadata !"_M_fn", metadata !5, i32 471, i64 64, i64 64, i64 64, i32 0, metadata !75} ; [ DW_TAG_member ]
!75 = metadata !{i32 786454, metadata !49, metadata !"event_callback", metadata !5, i32 443, i64 0, i64 0, i64 0, i32 0, metadata !76} ; [ DW_TAG_typedef ]
!76 = metadata !{i32 786447, null, metadata !"", null, i32 0, i64 64, i64 64, i64 0, i32 0, metadata !77} ; [ DW_TAG_pointer_type ]
!77 = metadata !{i32 786453, i32 0, metadata !"", i32 0, i32 0, i64 0, i64 0, i64 0, i32 0, null, metadata !78, i32 0, i32 0} ; [ DW_TAG_subroutine_type ]
!78 = metadata !{null, metadata !48, metadata !79, metadata !56}
!79 = metadata !{i32 786448, null, null, null, i32 0, i64 0, i64 0, i64 0, i32 0, metadata !49} ; [ DW_TAG_reference_type ]
!80 = metadata !{i32 786445, metadata !71, metadata !"_M_index", metadata !5, i32 472, i64 32, i64 32, i64 128, i32 0, metadata !56} ; [ DW_TAG_member ]
!81 = metadata !{i32 786445, metadata !71, metadata !"_M_refcount", metadata !5, i32 473, i64 32, i64 32, i64 160, i32 0, metadata !82} ; [ DW_TAG_member ]
!82 = metadata !{i32 786454, null, metadata !"_Atomic_word", metadata !5, i32 32, i64 0, i64 0, i64 0, i32 0, metadata !56} ; [ DW_TAG_typedef ]
!83 = metadata !{i32 786478, i32 0, metadata !71, metadata !"_Callback_list", metadata !"_Callback_list", metadata !"", metadata !5, i32 475, metadata !84, i1 false, i1 false, i32 0, i32 0, null, i32 256, i1 false, null, null, i32 0, metadata !87, i32 475} ; [ DW_TAG_subprogram ]
!84 = metadata !{i32 786453, i32 0, metadata !"", i32 0, i32 0, i64 0, i64 0, i64 0, i32 0, null, metadata !85, i32 0, i32 0} ; [ DW_TAG_subroutine_type ]
!85 = metadata !{null, metadata !86, metadata !75, metadata !56, metadata !70}
!86 = metadata !{i32 786447, i32 0, metadata !"", i32 0, i32 0, i64 64, i64 64, i64 0, i32 64, metadata !71} ; [ DW_TAG_pointer_type ]
!87 = metadata !{metadata !88}
!88 = metadata !{i32 786468}                      ; [ DW_TAG_base_type ]
!89 = metadata !{i32 786478, i32 0, metadata !71, metadata !"_M_add_reference", metadata !"_M_add_reference", metadata !"_ZNSt8ios_base14_Callback_list16_M_add_referenceEv", metadata !5, i32 480, metadata !90, i1 false, i1 false, i32 0, i32 0, null, i32 256, i1 false, null, null, i32 0, metadata !87, i32 480} ; [ DW_TAG_subprogram ]
!90 = metadata !{i32 786453, i32 0, metadata !"", i32 0, i32 0, i64 0, i64 0, i64 0, i32 0, null, metadata !91, i32 0, i32 0} ; [ DW_TAG_subroutine_type ]
!91 = metadata !{null, metadata !86}
!92 = metadata !{i32 786478, i32 0, metadata !71, metadata !"_M_remove_reference", metadata !"_M_remove_reference", metadata !"_ZNSt8ios_base14_Callback_list19_M_remove_referenceEv", metadata !5, i32 484, metadata !93, i1 false, i1 false, i32 0, i32 0, null, i32 256, i1 false, null, null, i32 0, metadata !87, i32 484} ; [ DW_TAG_subprogram ]
!93 = metadata !{i32 786453, i32 0, metadata !"", i32 0, i32 0, i64 0, i64 0, i64 0, i32 0, null, metadata !94, i32 0, i32 0} ; [ DW_TAG_subroutine_type ]
!94 = metadata !{metadata !56, metadata !86}
!95 = metadata !{i32 786445, metadata !49, metadata !"_M_word_zero", metadata !5, i32 505, i64 128, i64 64, i64 384, i32 2, metadata !96} ; [ DW_TAG_member ]
!96 = metadata !{i32 786434, metadata !49, metadata !"_Words", metadata !5, i32 497, i64 128, i64 64, i32 0, i32 0, null, metadata !97, i32 0, null, null} ; [ DW_TAG_class_type ]
!97 = metadata !{metadata !98, metadata !100, metadata !102}
!98 = metadata !{i32 786445, metadata !96, metadata !"_M_pword", metadata !5, i32 499, i64 64, i64 64, i64 0, i32 0, metadata !99} ; [ DW_TAG_member ]
!99 = metadata !{i32 786447, null, metadata !"", null, i32 0, i64 64, i64 64, i64 0, i32 0, null} ; [ DW_TAG_pointer_type ]
!100 = metadata !{i32 786445, metadata !96, metadata !"_M_iword", metadata !5, i32 500, i64 32, i64 32, i64 64, i32 0, metadata !101} ; [ DW_TAG_member ]
!101 = metadata !{i32 786468, null, metadata !"long int", null, i32 0, i64 32, i64 32, i64 0, i32 0, i32 5} ; [ DW_TAG_base_type ]
!102 = metadata !{i32 786478, i32 0, metadata !96, metadata !"_Words", metadata !"_Words", metadata !"", metadata !5, i32 501, metadata !103, i1 false, i1 false, i32 0, i32 0, null, i32 256, i1 false, null, null, i32 0, metadata !87, i32 501} ; [ DW_TAG_subprogram ]
!103 = metadata !{i32 786453, i32 0, metadata !"", i32 0, i32 0, i64 0, i64 0, i64 0, i32 0, null, metadata !104, i32 0, i32 0} ; [ DW_TAG_subroutine_type ]
!104 = metadata !{null, metadata !105}
!105 = metadata !{i32 786447, i32 0, metadata !"", i32 0, i32 0, i64 64, i64 64, i64 0, i32 64, metadata !96} ; [ DW_TAG_pointer_type ]
!106 = metadata !{i32 786445, metadata !49, metadata !"_M_local_word", metadata !5, i32 510, i64 1024, i64 64, i64 512, i32 2, metadata !107} ; [ DW_TAG_member ]
!107 = metadata !{i32 786433, null, metadata !"", null, i32 0, i64 1024, i64 64, i32 0, i32 0, metadata !96, metadata !108, i32 0, i32 0} ; [ DW_TAG_array_type ]
!108 = metadata !{metadata !109}
!109 = metadata !{i32 786465, i64 0, i64 7}       ; [ DW_TAG_subrange_type ]
!110 = metadata !{i32 786445, metadata !49, metadata !"_M_word_size", metadata !5, i32 513, i64 32, i64 32, i64 1536, i32 2, metadata !56} ; [ DW_TAG_member ]
!111 = metadata !{i32 786445, metadata !49, metadata !"_M_word", metadata !5, i32 514, i64 64, i64 64, i64 1600, i32 2, metadata !112} ; [ DW_TAG_member ]
!112 = metadata !{i32 786447, null, metadata !"", null, i32 0, i64 64, i64 64, i64 0, i32 0, metadata !96} ; [ DW_TAG_pointer_type ]
!113 = metadata !{i32 786445, metadata !49, metadata !"_M_ios_locale", metadata !5, i32 520, i64 64, i64 64, i64 1664, i32 2, metadata !114} ; [ DW_TAG_member ]
!114 = metadata !{i32 786434, metadata !115, metadata !"locale", metadata !116, i32 61, i64 64, i64 64, i32 0, i32 0, null, metadata !117, i32 0, null, null} ; [ DW_TAG_class_type ]
!115 = metadata !{i32 786489, null, metadata !"std", metadata !116, i32 44} ; [ DW_TAG_namespace ]
!116 = metadata !{i32 786473, metadata !"C:/Xilinx/Vivado/2018.1/win64/tools/clang/bin\5C..\5Clib\5Cclang\5C3.1/../../../include/c++/4.5.2\5Cbits/locale_classes.h", metadata !"C:\5CUsers\5Ccaiyujie\5CDesktop\5Cgongkaike_hls\5Ccode\5Cday6", null} ; [ DW_TAG_file_type ]
!117 = metadata !{metadata !118, metadata !255, metadata !259, metadata !264, metadata !267, metadata !270, metadata !273, metadata !274, metadata !277, metadata !781, metadata !784, metadata !785, metadata !788, metadata !791, metadata !794, metadata !795, metadata !796, metadata !799, metadata !800, metadata !801}
!118 = metadata !{i32 786445, metadata !114, metadata !"_M_impl", metadata !116, i32 278, i64 64, i64 64, i64 0, i32 1, metadata !119} ; [ DW_TAG_member ]
!119 = metadata !{i32 786447, null, metadata !"", null, i32 0, i64 64, i64 64, i64 0, i32 0, metadata !120} ; [ DW_TAG_pointer_type ]
!120 = metadata !{i32 786434, metadata !114, metadata !"_Impl", metadata !116, i32 470, i64 320, i64 64, i32 0, i32 0, null, metadata !121, i32 0, null, null} ; [ DW_TAG_class_type ]
!121 = metadata !{metadata !122, metadata !123, metadata !184, metadata !185, metadata !186, metadata !189, metadata !193, metadata !194, metadata !199, metadata !202, metadata !205, metadata !206, metadata !209, metadata !210, metadata !214, metadata !219, metadata !244, metadata !247, metadata !250, metadata !253, metadata !254}
!122 = metadata !{i32 786445, metadata !120, metadata !"_M_refcount", metadata !116, i32 490, i64 32, i64 32, i64 0, i32 1, metadata !82} ; [ DW_TAG_member ]
!123 = metadata !{i32 786445, metadata !120, metadata !"_M_facets", metadata !116, i32 491, i64 64, i64 64, i64 64, i32 1, metadata !124} ; [ DW_TAG_member ]
!124 = metadata !{i32 786447, null, metadata !"", null, i32 0, i64 64, i64 64, i64 0, i32 0, metadata !125} ; [ DW_TAG_pointer_type ]
!125 = metadata !{i32 786447, null, metadata !"", null, i32 0, i64 64, i64 64, i64 0, i32 0, metadata !126} ; [ DW_TAG_pointer_type ]
!126 = metadata !{i32 786470, null, metadata !"", null, i32 0, i64 0, i64 0, i64 0, i32 0, metadata !127} ; [ DW_TAG_const_type ]
!127 = metadata !{i32 786434, metadata !114, metadata !"facet", metadata !116, i32 336, i64 128, i64 64, i32 0, i32 0, null, metadata !128, i32 0, metadata !127, null} ; [ DW_TAG_class_type ]
!128 = metadata !{metadata !129, metadata !130, metadata !131, metadata !134, metadata !140, metadata !143, metadata !154, metadata !157, metadata !160, metadata !163, metadata !166, metadata !169, metadata !173, metadata !174, metadata !178, metadata !182, metadata !183}
!129 = metadata !{i32 786445, metadata !116, metadata !"_vptr$facet", metadata !116, i32 0, i64 64, i64 0, i64 0, i32 0, metadata !52} ; [ DW_TAG_member ]
!130 = metadata !{i32 786445, metadata !127, metadata !"_M_refcount", metadata !116, i32 342, i64 32, i64 32, i64 64, i32 1, metadata !82} ; [ DW_TAG_member ]
!131 = metadata !{i32 786478, i32 0, metadata !127, metadata !"_S_initialize_once", metadata !"_S_initialize_once", metadata !"_ZNSt6locale5facet18_S_initialize_onceEv", metadata !116, i32 355, metadata !132, i1 false, i1 false, i32 0, i32 0, null, i32 257, i1 false, null, null, i32 0, metadata !87, i32 355} ; [ DW_TAG_subprogram ]
!132 = metadata !{i32 786453, i32 0, metadata !"", i32 0, i32 0, i64 0, i64 0, i64 0, i32 0, null, metadata !133, i32 0, i32 0} ; [ DW_TAG_subroutine_type ]
!133 = metadata !{null}
!134 = metadata !{i32 786478, i32 0, metadata !127, metadata !"facet", metadata !"facet", metadata !"", metadata !116, i32 368, metadata !135, i1 false, i1 false, i32 0, i32 0, null, i32 386, i1 false, null, null, i32 0, metadata !87, i32 368} ; [ DW_TAG_subprogram ]
!135 = metadata !{i32 786453, i32 0, metadata !"", i32 0, i32 0, i64 0, i64 0, i64 0, i32 0, null, metadata !136, i32 0, i32 0} ; [ DW_TAG_subroutine_type ]
!136 = metadata !{null, metadata !137, metadata !138}
!137 = metadata !{i32 786447, i32 0, metadata !"", i32 0, i32 0, i64 64, i64 64, i64 0, i32 64, metadata !127} ; [ DW_TAG_pointer_type ]
!138 = metadata !{i32 786454, null, metadata !"size_t", metadata !116, i32 35, i64 0, i64 0, i64 0, i32 0, metadata !139} ; [ DW_TAG_typedef ]
!139 = metadata !{i32 786468, null, metadata !"long long unsigned int", null, i32 0, i64 64, i64 64, i64 0, i32 0, i32 7} ; [ DW_TAG_base_type ]
!140 = metadata !{i32 786478, i32 0, metadata !127, metadata !"~facet", metadata !"~facet", metadata !"", metadata !116, i32 373, metadata !141, i1 false, i1 false, i32 1, i32 0, metadata !127, i32 258, i1 false, null, null, i32 0, metadata !87, i32 373} ; [ DW_TAG_subprogram ]
!141 = metadata !{i32 786453, i32 0, metadata !"", i32 0, i32 0, i64 0, i64 0, i64 0, i32 0, null, metadata !142, i32 0, i32 0} ; [ DW_TAG_subroutine_type ]
!142 = metadata !{null, metadata !137}
!143 = metadata !{i32 786478, i32 0, metadata !127, metadata !"_S_create_c_locale", metadata !"_S_create_c_locale", metadata !"_ZNSt6locale5facet18_S_create_c_localeERPiPKcS1_", metadata !116, i32 376, metadata !144, i1 false, i1 false, i32 0, i32 0, null, i32 258, i1 false, null, null, i32 0, metadata !87, i32 376} ; [ DW_TAG_subprogram ]
!144 = metadata !{i32 786453, i32 0, metadata !"", i32 0, i32 0, i64 0, i64 0, i64 0, i32 0, null, metadata !145, i32 0, i32 0} ; [ DW_TAG_subroutine_type ]
!145 = metadata !{null, metadata !146, metadata !151, metadata !147}
!146 = metadata !{i32 786448, null, null, null, i32 0, i64 0, i64 0, i64 0, i32 0, metadata !147} ; [ DW_TAG_reference_type ]
!147 = metadata !{i32 786454, metadata !148, metadata !"__c_locale", metadata !116, i32 48, i64 0, i64 0, i64 0, i32 0, metadata !150} ; [ DW_TAG_typedef ]
!148 = metadata !{i32 786489, null, metadata !"std", metadata !149, i32 46} ; [ DW_TAG_namespace ]
!149 = metadata !{i32 786473, metadata !"C:/Xilinx/Vivado/2018.1/win64/tools/clang/bin\5C..\5Clib\5Cclang\5C3.1/../../../include/c++/4.5.2/x86_64-w64-mingw32\5Cbits/c++locale.h", metadata !"C:\5CUsers\5Ccaiyujie\5CDesktop\5Cgongkaike_hls\5Ccode\5Cday6", null} ; [ DW_TAG_file_type ]
!150 = metadata !{i32 786447, null, metadata !"", null, i32 0, i64 64, i64 64, i64 0, i32 0, metadata !56} ; [ DW_TAG_pointer_type ]
!151 = metadata !{i32 786447, null, metadata !"", null, i32 0, i64 64, i64 64, i64 0, i32 0, metadata !152} ; [ DW_TAG_pointer_type ]
!152 = metadata !{i32 786470, null, metadata !"", null, i32 0, i64 0, i64 0, i64 0, i32 0, metadata !153} ; [ DW_TAG_const_type ]
!153 = metadata !{i32 786468, null, metadata !"char", null, i32 0, i64 8, i64 8, i64 0, i32 0, i32 6} ; [ DW_TAG_base_type ]
!154 = metadata !{i32 786478, i32 0, metadata !127, metadata !"_S_clone_c_locale", metadata !"_S_clone_c_locale", metadata !"_ZNSt6locale5facet17_S_clone_c_localeERPi", metadata !116, i32 380, metadata !155, i1 false, i1 false, i32 0, i32 0, null, i32 258, i1 false, null, null, i32 0, metadata !87, i32 380} ; [ DW_TAG_subprogram ]
!155 = metadata !{i32 786453, i32 0, metadata !"", i32 0, i32 0, i64 0, i64 0, i64 0, i32 0, null, metadata !156, i32 0, i32 0} ; [ DW_TAG_subroutine_type ]
!156 = metadata !{metadata !147, metadata !146}
!157 = metadata !{i32 786478, i32 0, metadata !127, metadata !"_S_destroy_c_locale", metadata !"_S_destroy_c_locale", metadata !"_ZNSt6locale5facet19_S_destroy_c_localeERPi", metadata !116, i32 383, metadata !158, i1 false, i1 false, i32 0, i32 0, null, i32 258, i1 false, null, null, i32 0, metadata !87, i32 383} ; [ DW_TAG_subprogram ]
!158 = metadata !{i32 786453, i32 0, metadata !"", i32 0, i32 0, i64 0, i64 0, i64 0, i32 0, null, metadata !159, i32 0, i32 0} ; [ DW_TAG_subroutine_type ]
!159 = metadata !{null, metadata !146}
!160 = metadata !{i32 786478, i32 0, metadata !127, metadata !"_S_lc_ctype_c_locale", metadata !"_S_lc_ctype_c_locale", metadata !"_ZNSt6locale5facet20_S_lc_ctype_c_localeEPiPKc", metadata !116, i32 386, metadata !161, i1 false, i1 false, i32 0, i32 0, null, i32 258, i1 false, null, null, i32 0, metadata !87, i32 386} ; [ DW_TAG_subprogram ]
!161 = metadata !{i32 786453, i32 0, metadata !"", i32 0, i32 0, i64 0, i64 0, i64 0, i32 0, null, metadata !162, i32 0, i32 0} ; [ DW_TAG_subroutine_type ]
!162 = metadata !{metadata !147, metadata !147, metadata !151}
!163 = metadata !{i32 786478, i32 0, metadata !127, metadata !"_S_get_c_locale", metadata !"_S_get_c_locale", metadata !"_ZNSt6locale5facet15_S_get_c_localeEv", metadata !116, i32 391, metadata !164, i1 false, i1 false, i32 0, i32 0, null, i32 258, i1 false, null, null, i32 0, metadata !87, i32 391} ; [ DW_TAG_subprogram ]
!164 = metadata !{i32 786453, i32 0, metadata !"", i32 0, i32 0, i64 0, i64 0, i64 0, i32 0, null, metadata !165, i32 0, i32 0} ; [ DW_TAG_subroutine_type ]
!165 = metadata !{metadata !147}
!166 = metadata !{i32 786478, i32 0, metadata !127, metadata !"_S_get_c_name", metadata !"_S_get_c_name", metadata !"_ZNSt6locale5facet13_S_get_c_nameEv", metadata !116, i32 394, metadata !167, i1 false, i1 false, i32 0, i32 0, null, i32 258, i1 false, null, null, i32 0, metadata !87, i32 394} ; [ DW_TAG_subprogram ]
!167 = metadata !{i32 786453, i32 0, metadata !"", i32 0, i32 0, i64 0, i64 0, i64 0, i32 0, null, metadata !168, i32 0, i32 0} ; [ DW_TAG_subroutine_type ]
!168 = metadata !{metadata !151}
!169 = metadata !{i32 786478, i32 0, metadata !127, metadata !"_M_add_reference", metadata !"_M_add_reference", metadata !"_ZNKSt6locale5facet16_M_add_referenceEv", metadata !116, i32 398, metadata !170, i1 false, i1 false, i32 0, i32 0, null, i32 257, i1 false, null, null, i32 0, metadata !87, i32 398} ; [ DW_TAG_subprogram ]
!170 = metadata !{i32 786453, i32 0, metadata !"", i32 0, i32 0, i64 0, i64 0, i64 0, i32 0, null, metadata !171, i32 0, i32 0} ; [ DW_TAG_subroutine_type ]
!171 = metadata !{null, metadata !172}
!172 = metadata !{i32 786447, i32 0, metadata !"", i32 0, i32 0, i64 64, i64 64, i64 0, i32 64, metadata !126} ; [ DW_TAG_pointer_type ]
!173 = metadata !{i32 786478, i32 0, metadata !127, metadata !"_M_remove_reference", metadata !"_M_remove_reference", metadata !"_ZNKSt6locale5facet19_M_remove_referenceEv", metadata !116, i32 402, metadata !170, i1 false, i1 false, i32 0, i32 0, null, i32 257, i1 false, null, null, i32 0, metadata !87, i32 402} ; [ DW_TAG_subprogram ]
!174 = metadata !{i32 786478, i32 0, metadata !127, metadata !"facet", metadata !"facet", metadata !"", metadata !116, i32 413, metadata !175, i1 false, i1 false, i32 0, i32 0, null, i32 257, i1 false, null, null, i32 0, metadata !87, i32 413} ; [ DW_TAG_subprogram ]
!175 = metadata !{i32 786453, i32 0, metadata !"", i32 0, i32 0, i64 0, i64 0, i64 0, i32 0, null, metadata !176, i32 0, i32 0} ; [ DW_TAG_subroutine_type ]
!176 = metadata !{null, metadata !137, metadata !177}
!177 = metadata !{i32 786448, null, null, null, i32 0, i64 0, i64 0, i64 0, i32 0, metadata !126} ; [ DW_TAG_reference_type ]
!178 = metadata !{i32 786478, i32 0, metadata !127, metadata !"operator=", metadata !"operator=", metadata !"_ZNSt6locale5facetaSERKS0_", metadata !116, i32 416, metadata !179, i1 false, i1 false, i32 0, i32 0, null, i32 257, i1 false, null, null, i32 0, metadata !87, i32 416} ; [ DW_TAG_subprogram ]
!179 = metadata !{i32 786453, i32 0, metadata !"", i32 0, i32 0, i64 0, i64 0, i64 0, i32 0, null, metadata !180, i32 0, i32 0} ; [ DW_TAG_subroutine_type ]
!180 = metadata !{metadata !181, metadata !137, metadata !177}
!181 = metadata !{i32 786448, null, null, null, i32 0, i64 0, i64 0, i64 0, i32 0, metadata !127} ; [ DW_TAG_reference_type ]
!182 = metadata !{i32 786474, metadata !127, null, metadata !116, i32 0, i64 0, i64 0, i64 0, i32 0, metadata !120} ; [ DW_TAG_friend ]
!183 = metadata !{i32 786474, metadata !127, null, metadata !116, i32 0, i64 0, i64 0, i64 0, i32 0, metadata !114} ; [ DW_TAG_friend ]
!184 = metadata !{i32 786445, metadata !120, metadata !"_M_facets_size", metadata !116, i32 492, i64 64, i64 64, i64 128, i32 1, metadata !138} ; [ DW_TAG_member ]
!185 = metadata !{i32 786445, metadata !120, metadata !"_M_caches", metadata !116, i32 493, i64 64, i64 64, i64 192, i32 1, metadata !124} ; [ DW_TAG_member ]
!186 = metadata !{i32 786445, metadata !120, metadata !"_M_names", metadata !116, i32 494, i64 64, i64 64, i64 256, i32 1, metadata !187} ; [ DW_TAG_member ]
!187 = metadata !{i32 786447, null, metadata !"", null, i32 0, i64 64, i64 64, i64 0, i32 0, metadata !188} ; [ DW_TAG_pointer_type ]
!188 = metadata !{i32 786447, null, metadata !"", null, i32 0, i64 64, i64 64, i64 0, i32 0, metadata !153} ; [ DW_TAG_pointer_type ]
!189 = metadata !{i32 786478, i32 0, metadata !120, metadata !"_M_add_reference", metadata !"_M_add_reference", metadata !"_ZNSt6locale5_Impl16_M_add_referenceEv", metadata !116, i32 504, metadata !190, i1 false, i1 false, i32 0, i32 0, null, i32 257, i1 false, null, null, i32 0, metadata !87, i32 504} ; [ DW_TAG_subprogram ]
!190 = metadata !{i32 786453, i32 0, metadata !"", i32 0, i32 0, i64 0, i64 0, i64 0, i32 0, null, metadata !191, i32 0, i32 0} ; [ DW_TAG_subroutine_type ]
!191 = metadata !{null, metadata !192}
!192 = metadata !{i32 786447, i32 0, metadata !"", i32 0, i32 0, i64 64, i64 64, i64 0, i32 64, metadata !120} ; [ DW_TAG_pointer_type ]
!193 = metadata !{i32 786478, i32 0, metadata !120, metadata !"_M_remove_reference", metadata !"_M_remove_reference", metadata !"_ZNSt6locale5_Impl19_M_remove_referenceEv", metadata !116, i32 508, metadata !190, i1 false, i1 false, i32 0, i32 0, null, i32 257, i1 false, null, null, i32 0, metadata !87, i32 508} ; [ DW_TAG_subprogram ]
!194 = metadata !{i32 786478, i32 0, metadata !120, metadata !"_Impl", metadata !"_Impl", metadata !"", metadata !116, i32 519, metadata !195, i1 false, i1 false, i32 0, i32 0, null, i32 257, i1 false, null, null, i32 0, metadata !87, i32 519} ; [ DW_TAG_subprogram ]
!195 = metadata !{i32 786453, i32 0, metadata !"", i32 0, i32 0, i64 0, i64 0, i64 0, i32 0, null, metadata !196, i32 0, i32 0} ; [ DW_TAG_subroutine_type ]
!196 = metadata !{null, metadata !192, metadata !197, metadata !138}
!197 = metadata !{i32 786448, null, null, null, i32 0, i64 0, i64 0, i64 0, i32 0, metadata !198} ; [ DW_TAG_reference_type ]
!198 = metadata !{i32 786470, null, metadata !"", null, i32 0, i64 0, i64 0, i64 0, i32 0, metadata !120} ; [ DW_TAG_const_type ]
!199 = metadata !{i32 786478, i32 0, metadata !120, metadata !"_Impl", metadata !"_Impl", metadata !"", metadata !116, i32 520, metadata !200, i1 false, i1 false, i32 0, i32 0, null, i32 257, i1 false, null, null, i32 0, metadata !87, i32 520} ; [ DW_TAG_subprogram ]
!200 = metadata !{i32 786453, i32 0, metadata !"", i32 0, i32 0, i64 0, i64 0, i64 0, i32 0, null, metadata !201, i32 0, i32 0} ; [ DW_TAG_subroutine_type ]
!201 = metadata !{null, metadata !192, metadata !151, metadata !138}
!202 = metadata !{i32 786478, i32 0, metadata !120, metadata !"_Impl", metadata !"_Impl", metadata !"", metadata !116, i32 521, metadata !203, i1 false, i1 false, i32 0, i32 0, null, i32 257, i1 false, null, null, i32 0, metadata !87, i32 521} ; [ DW_TAG_subprogram ]
!203 = metadata !{i32 786453, i32 0, metadata !"", i32 0, i32 0, i64 0, i64 0, i64 0, i32 0, null, metadata !204, i32 0, i32 0} ; [ DW_TAG_subroutine_type ]
!204 = metadata !{null, metadata !192, metadata !138}
!205 = metadata !{i32 786478, i32 0, metadata !120, metadata !"~_Impl", metadata !"~_Impl", metadata !"", metadata !116, i32 523, metadata !190, i1 false, i1 false, i32 0, i32 0, null, i32 257, i1 false, null, null, i32 0, metadata !87, i32 523} ; [ DW_TAG_subprogram ]
!206 = metadata !{i32 786478, i32 0, metadata !120, metadata !"_Impl", metadata !"_Impl", metadata !"", metadata !116, i32 525, metadata !207, i1 false, i1 false, i32 0, i32 0, null, i32 257, i1 false, null, null, i32 0, metadata !87, i32 525} ; [ DW_TAG_subprogram ]
!207 = metadata !{i32 786453, i32 0, metadata !"", i32 0, i32 0, i64 0, i64 0, i64 0, i32 0, null, metadata !208, i32 0, i32 0} ; [ DW_TAG_subroutine_type ]
!208 = metadata !{null, metadata !192, metadata !197}
!209 = metadata !{i32 786478, i32 0, metadata !120, metadata !"operator=", metadata !"operator=", metadata !"_ZNSt6locale5_ImplaSERKS0_", metadata !116, i32 528, metadata !207, i1 false, i1 false, i32 0, i32 0, null, i32 257, i1 false, null, null, i32 0, metadata !87, i32 528} ; [ DW_TAG_subprogram ]
!210 = metadata !{i32 786478, i32 0, metadata !120, metadata !"_M_check_same_name", metadata !"_M_check_same_name", metadata !"_ZNSt6locale5_Impl18_M_check_same_nameEv", metadata !116, i32 531, metadata !211, i1 false, i1 false, i32 0, i32 0, null, i32 257, i1 false, null, null, i32 0, metadata !87, i32 531} ; [ DW_TAG_subprogram ]
!211 = metadata !{i32 786453, i32 0, metadata !"", i32 0, i32 0, i64 0, i64 0, i64 0, i32 0, null, metadata !212, i32 0, i32 0} ; [ DW_TAG_subroutine_type ]
!212 = metadata !{metadata !213, metadata !192}
!213 = metadata !{i32 786468, null, metadata !"bool", null, i32 0, i64 8, i64 8, i64 0, i32 0, i32 2} ; [ DW_TAG_base_type ]
!214 = metadata !{i32 786478, i32 0, metadata !120, metadata !"_M_replace_categories", metadata !"_M_replace_categories", metadata !"_ZNSt6locale5_Impl21_M_replace_categoriesEPKS0_i", metadata !116, i32 542, metadata !215, i1 false, i1 false, i32 0, i32 0, null, i32 257, i1 false, null, null, i32 0, metadata !87, i32 542} ; [ DW_TAG_subprogram ]
!215 = metadata !{i32 786453, i32 0, metadata !"", i32 0, i32 0, i64 0, i64 0, i64 0, i32 0, null, metadata !216, i32 0, i32 0} ; [ DW_TAG_subroutine_type ]
!216 = metadata !{null, metadata !192, metadata !217, metadata !218}
!217 = metadata !{i32 786447, null, metadata !"", null, i32 0, i64 64, i64 64, i64 0, i32 0, metadata !198} ; [ DW_TAG_pointer_type ]
!218 = metadata !{i32 786454, metadata !114, metadata !"category", metadata !116, i32 66, i64 0, i64 0, i64 0, i32 0, metadata !56} ; [ DW_TAG_typedef ]
!219 = metadata !{i32 786478, i32 0, metadata !120, metadata !"_M_replace_category", metadata !"_M_replace_category", metadata !"_ZNSt6locale5_Impl19_M_replace_categoryEPKS0_PKPKNS_2idE", metadata !116, i32 545, metadata !220, i1 false, i1 false, i32 0, i32 0, null, i32 257, i1 false, null, null, i32 0, metadata !87, i32 545} ; [ DW_TAG_subprogram ]
!220 = metadata !{i32 786453, i32 0, metadata !"", i32 0, i32 0, i64 0, i64 0, i64 0, i32 0, null, metadata !221, i32 0, i32 0} ; [ DW_TAG_subroutine_type ]
!221 = metadata !{null, metadata !192, metadata !217, metadata !222}
!222 = metadata !{i32 786447, null, metadata !"", null, i32 0, i64 64, i64 64, i64 0, i32 0, metadata !223} ; [ DW_TAG_pointer_type ]
!223 = metadata !{i32 786470, null, metadata !"", null, i32 0, i64 0, i64 0, i64 0, i32 0, metadata !224} ; [ DW_TAG_const_type ]
!224 = metadata !{i32 786447, null, metadata !"", null, i32 0, i64 64, i64 64, i64 0, i32 0, metadata !225} ; [ DW_TAG_pointer_type ]
!225 = metadata !{i32 786470, null, metadata !"", null, i32 0, i64 0, i64 0, i64 0, i32 0, metadata !226} ; [ DW_TAG_const_type ]
!226 = metadata !{i32 786434, metadata !114, metadata !"id", metadata !116, i32 431, i64 64, i64 64, i32 0, i32 0, null, metadata !227, i32 0, null, null} ; [ DW_TAG_class_type ]
!227 = metadata !{metadata !228, metadata !229, metadata !234, metadata !235, metadata !238, metadata !242, metadata !243}
!228 = metadata !{i32 786445, metadata !226, metadata !"_M_index", metadata !116, i32 448, i64 64, i64 64, i64 0, i32 1, metadata !138} ; [ DW_TAG_member ]
!229 = metadata !{i32 786478, i32 0, metadata !226, metadata !"operator=", metadata !"operator=", metadata !"_ZNSt6locale2idaSERKS0_", metadata !116, i32 454, metadata !230, i1 false, i1 false, i32 0, i32 0, null, i32 257, i1 false, null, null, i32 0, metadata !87, i32 454} ; [ DW_TAG_subprogram ]
!230 = metadata !{i32 786453, i32 0, metadata !"", i32 0, i32 0, i64 0, i64 0, i64 0, i32 0, null, metadata !231, i32 0, i32 0} ; [ DW_TAG_subroutine_type ]
!231 = metadata !{null, metadata !232, metadata !233}
!232 = metadata !{i32 786447, i32 0, metadata !"", i32 0, i32 0, i64 64, i64 64, i64 0, i32 64, metadata !226} ; [ DW_TAG_pointer_type ]
!233 = metadata !{i32 786448, null, null, null, i32 0, i64 0, i64 0, i64 0, i32 0, metadata !225} ; [ DW_TAG_reference_type ]
!234 = metadata !{i32 786478, i32 0, metadata !226, metadata !"id", metadata !"id", metadata !"", metadata !116, i32 456, metadata !230, i1 false, i1 false, i32 0, i32 0, null, i32 257, i1 false, null, null, i32 0, metadata !87, i32 456} ; [ DW_TAG_subprogram ]
!235 = metadata !{i32 786478, i32 0, metadata !226, metadata !"id", metadata !"id", metadata !"", metadata !116, i32 462, metadata !236, i1 false, i1 false, i32 0, i32 0, null, i32 256, i1 false, null, null, i32 0, metadata !87, i32 462} ; [ DW_TAG_subprogram ]
!236 = metadata !{i32 786453, i32 0, metadata !"", i32 0, i32 0, i64 0, i64 0, i64 0, i32 0, null, metadata !237, i32 0, i32 0} ; [ DW_TAG_subroutine_type ]
!237 = metadata !{null, metadata !232}
!238 = metadata !{i32 786478, i32 0, metadata !226, metadata !"_M_id", metadata !"_M_id", metadata !"_ZNKSt6locale2id5_M_idEv", metadata !116, i32 465, metadata !239, i1 false, i1 false, i32 0, i32 0, null, i32 256, i1 false, null, null, i32 0, metadata !87, i32 465} ; [ DW_TAG_subprogram ]
!239 = metadata !{i32 786453, i32 0, metadata !"", i32 0, i32 0, i64 0, i64 0, i64 0, i32 0, null, metadata !240, i32 0, i32 0} ; [ DW_TAG_subroutine_type ]
!240 = metadata !{metadata !138, metadata !241}
!241 = metadata !{i32 786447, i32 0, metadata !"", i32 0, i32 0, i64 64, i64 64, i64 0, i32 64, metadata !225} ; [ DW_TAG_pointer_type ]
!242 = metadata !{i32 786474, metadata !226, null, metadata !116, i32 0, i64 0, i64 0, i64 0, i32 0, metadata !120} ; [ DW_TAG_friend ]
!243 = metadata !{i32 786474, metadata !226, null, metadata !116, i32 0, i64 0, i64 0, i64 0, i32 0, metadata !114} ; [ DW_TAG_friend ]
!244 = metadata !{i32 786478, i32 0, metadata !120, metadata !"_M_replace_facet", metadata !"_M_replace_facet", metadata !"_ZNSt6locale5_Impl16_M_replace_facetEPKS0_PKNS_2idE", metadata !116, i32 548, metadata !245, i1 false, i1 false, i32 0, i32 0, null, i32 257, i1 false, null, null, i32 0, metadata !87, i32 548} ; [ DW_TAG_subprogram ]
!245 = metadata !{i32 786453, i32 0, metadata !"", i32 0, i32 0, i64 0, i64 0, i64 0, i32 0, null, metadata !246, i32 0, i32 0} ; [ DW_TAG_subroutine_type ]
!246 = metadata !{null, metadata !192, metadata !217, metadata !224}
!247 = metadata !{i32 786478, i32 0, metadata !120, metadata !"_M_install_facet", metadata !"_M_install_facet", metadata !"_ZNSt6locale5_Impl16_M_install_facetEPKNS_2idEPKNS_5facetE", metadata !116, i32 551, metadata !248, i1 false, i1 false, i32 0, i32 0, null, i32 257, i1 false, null, null, i32 0, metadata !87, i32 551} ; [ DW_TAG_subprogram ]
!248 = metadata !{i32 786453, i32 0, metadata !"", i32 0, i32 0, i64 0, i64 0, i64 0, i32 0, null, metadata !249, i32 0, i32 0} ; [ DW_TAG_subroutine_type ]
!249 = metadata !{null, metadata !192, metadata !224, metadata !125}
!250 = metadata !{i32 786478, i32 0, metadata !120, metadata !"_M_install_cache", metadata !"_M_install_cache", metadata !"_ZNSt6locale5_Impl16_M_install_cacheEPKNS_5facetEy", metadata !116, i32 559, metadata !251, i1 false, i1 false, i32 0, i32 0, null, i32 257, i1 false, null, null, i32 0, metadata !87, i32 559} ; [ DW_TAG_subprogram ]
!251 = metadata !{i32 786453, i32 0, metadata !"", i32 0, i32 0, i64 0, i64 0, i64 0, i32 0, null, metadata !252, i32 0, i32 0} ; [ DW_TAG_subroutine_type ]
!252 = metadata !{null, metadata !192, metadata !125, metadata !138}
!253 = metadata !{i32 786474, metadata !120, null, metadata !116, i32 0, i64 0, i64 0, i64 0, i32 0, metadata !127} ; [ DW_TAG_friend ]
!254 = metadata !{i32 786474, metadata !120, null, metadata !116, i32 0, i64 0, i64 0, i64 0, i32 0, metadata !114} ; [ DW_TAG_friend ]
!255 = metadata !{i32 786478, i32 0, metadata !114, metadata !"locale", metadata !"locale", metadata !"", metadata !116, i32 116, metadata !256, i1 false, i1 false, i32 0, i32 0, null, i32 256, i1 false, null, null, i32 0, metadata !87, i32 116} ; [ DW_TAG_subprogram ]
!256 = metadata !{i32 786453, i32 0, metadata !"", i32 0, i32 0, i64 0, i64 0, i64 0, i32 0, null, metadata !257, i32 0, i32 0} ; [ DW_TAG_subroutine_type ]
!257 = metadata !{null, metadata !258}
!258 = metadata !{i32 786447, i32 0, metadata !"", i32 0, i32 0, i64 64, i64 64, i64 0, i32 64, metadata !114} ; [ DW_TAG_pointer_type ]
!259 = metadata !{i32 786478, i32 0, metadata !114, metadata !"locale", metadata !"locale", metadata !"", metadata !116, i32 125, metadata !260, i1 false, i1 false, i32 0, i32 0, null, i32 256, i1 false, null, null, i32 0, metadata !87, i32 125} ; [ DW_TAG_subprogram ]
!260 = metadata !{i32 786453, i32 0, metadata !"", i32 0, i32 0, i64 0, i64 0, i64 0, i32 0, null, metadata !261, i32 0, i32 0} ; [ DW_TAG_subroutine_type ]
!261 = metadata !{null, metadata !258, metadata !262}
!262 = metadata !{i32 786448, null, null, null, i32 0, i64 0, i64 0, i64 0, i32 0, metadata !263} ; [ DW_TAG_reference_type ]
!263 = metadata !{i32 786470, null, metadata !"", null, i32 0, i64 0, i64 0, i64 0, i32 0, metadata !114} ; [ DW_TAG_const_type ]
!264 = metadata !{i32 786478, i32 0, metadata !114, metadata !"locale", metadata !"locale", metadata !"", metadata !116, i32 136, metadata !265, i1 false, i1 false, i32 0, i32 0, null, i32 384, i1 false, null, null, i32 0, metadata !87, i32 136} ; [ DW_TAG_subprogram ]
!265 = metadata !{i32 786453, i32 0, metadata !"", i32 0, i32 0, i64 0, i64 0, i64 0, i32 0, null, metadata !266, i32 0, i32 0} ; [ DW_TAG_subroutine_type ]
!266 = metadata !{null, metadata !258, metadata !151}
!267 = metadata !{i32 786478, i32 0, metadata !114, metadata !"locale", metadata !"locale", metadata !"", metadata !116, i32 150, metadata !268, i1 false, i1 false, i32 0, i32 0, null, i32 256, i1 false, null, null, i32 0, metadata !87, i32 150} ; [ DW_TAG_subprogram ]
!268 = metadata !{i32 786453, i32 0, metadata !"", i32 0, i32 0, i64 0, i64 0, i64 0, i32 0, null, metadata !269, i32 0, i32 0} ; [ DW_TAG_subroutine_type ]
!269 = metadata !{null, metadata !258, metadata !262, metadata !151, metadata !218}
!270 = metadata !{i32 786478, i32 0, metadata !114, metadata !"locale", metadata !"locale", metadata !"", metadata !116, i32 163, metadata !271, i1 false, i1 false, i32 0, i32 0, null, i32 256, i1 false, null, null, i32 0, metadata !87, i32 163} ; [ DW_TAG_subprogram ]
!271 = metadata !{i32 786453, i32 0, metadata !"", i32 0, i32 0, i64 0, i64 0, i64 0, i32 0, null, metadata !272, i32 0, i32 0} ; [ DW_TAG_subroutine_type ]
!272 = metadata !{null, metadata !258, metadata !262, metadata !262, metadata !218}
!273 = metadata !{i32 786478, i32 0, metadata !114, metadata !"~locale", metadata !"~locale", metadata !"", metadata !116, i32 179, metadata !256, i1 false, i1 false, i32 0, i32 0, null, i32 256, i1 false, null, null, i32 0, metadata !87, i32 179} ; [ DW_TAG_subprogram ]
!274 = metadata !{i32 786478, i32 0, metadata !114, metadata !"operator=", metadata !"operator=", metadata !"_ZNSt6localeaSERKS_", metadata !116, i32 190, metadata !275, i1 false, i1 false, i32 0, i32 0, null, i32 256, i1 false, null, null, i32 0, metadata !87, i32 190} ; [ DW_TAG_subprogram ]
!275 = metadata !{i32 786453, i32 0, metadata !"", i32 0, i32 0, i64 0, i64 0, i64 0, i32 0, null, metadata !276, i32 0, i32 0} ; [ DW_TAG_subroutine_type ]
!276 = metadata !{metadata !262, metadata !258, metadata !262}
!277 = metadata !{i32 786478, i32 0, metadata !114, metadata !"name", metadata !"name", metadata !"_ZNKSt6locale4nameEv", metadata !116, i32 214, metadata !278, i1 false, i1 false, i32 0, i32 0, null, i32 256, i1 false, null, null, i32 0, metadata !87, i32 214} ; [ DW_TAG_subprogram ]
!278 = metadata !{i32 786453, i32 0, metadata !"", i32 0, i32 0, i64 0, i64 0, i64 0, i32 0, null, metadata !279, i32 0, i32 0} ; [ DW_TAG_subroutine_type ]
!279 = metadata !{metadata !280, metadata !780}
!280 = metadata !{i32 786454, metadata !281, metadata !"string", metadata !116, i32 62, i64 0, i64 0, i64 0, i32 0, metadata !283} ; [ DW_TAG_typedef ]
!281 = metadata !{i32 786489, null, metadata !"std", metadata !282, i32 42} ; [ DW_TAG_namespace ]
!282 = metadata !{i32 786473, metadata !"C:/Xilinx/Vivado/2018.1/win64/tools/clang/bin\5C..\5Clib\5Cclang\5C3.1/../../../include/c++/4.5.2\5Cbits/stringfwd.h", metadata !"C:\5CUsers\5Ccaiyujie\5CDesktop\5Cgongkaike_hls\5Ccode\5Cday6", null} ; [ DW_TAG_file_type ]
!283 = metadata !{i32 786434, metadata !281, metadata !"basic_string<char>", metadata !284, i32 1132, i64 64, i64 64, i32 0, i32 0, null, metadata !285, i32 0, null, metadata !724} ; [ DW_TAG_class_type ]
!284 = metadata !{i32 786473, metadata !"C:/Xilinx/Vivado/2018.1/win64/tools/clang/bin\5C..\5Clib\5Cclang\5C3.1/../../../include/c++/4.5.2\5Cbits/basic_string.tcc", metadata !"C:\5CUsers\5Ccaiyujie\5CDesktop\5Cgongkaike_hls\5Ccode\5Cday6", null} ; [ DW_TAG_file_type ]
!285 = metadata !{metadata !286, metadata !359, metadata !364, metadata !368, metadata !417, metadata !426, metadata !427, metadata !430, metadata !433, metadata !436, metadata !439, metadata !442, metadata !445, metadata !446, metadata !449, metadata !452, metadata !459, metadata !462, metadata !465, metadata !468, metadata !471, metadata !472, metadata !473, metadata !474, metadata !477, metadata !481, metadata !484, metadata !487, metadata !490, metadata !493, metadata !496, metadata !497, metadata !501, metadata !504, metadata !507, metadata !510, metadata !513, metadata !514, metadata !515, metadata !522, metadata !529, metadata !530, metadata !531, metadata !534, metadata !535, metadata !536, metadata !539, metadata !542, metadata !543, metadata !544, metadata !545, metadata !548, metadata !553, metadata !558, metadata !559, metadata !560, metadata !561, metadata !562, metadata !563, metadata !564, metadata !567, metadata !570, metadata !571, metadata !574, metadata !577, metadata !578, metadata !579, metadata !580, metadata !581, metadata !582, metadata !585, metadata !588, metadata !591, metadata !594, metadata !597, metadata !600, metadata !603, metadata !606, metadata !609, metadata !612, metadata !615, metadata !618, metadata !621, metadata !624, metadata !627, metadata !630, metadata !633, metadata !636, metadata !639, metadata !642, metadata !645, metadata !648, metadata !651, metadata !652, metadata !653, metadata !656, metadata !657, metadata !660, metadata !663, metadata !666, metadata !667, metadata !671, metadata !674, metadata !677, metadata !680, metadata !683, metadata !684, metadata !685, metadata !686, metadata !687, metadata !688, metadata !689, metadata !690, metadata !691, metadata !692, metadata !693, metadata !694, metadata !695, metadata !696, metadata !697, metadata !698, metadata !699, metadata !700, metadata !701, metadata !702, metadata !703, metadata !706, metadata !709, metadata !712, metadata !715, metadata !718, metadata !721}
!286 = metadata !{i32 786445, metadata !283, metadata !"_M_dataplus", metadata !287, i32 274, i64 64, i64 64, i64 0, i32 1, metadata !288} ; [ DW_TAG_member ]
!287 = metadata !{i32 786473, metadata !"C:/Xilinx/Vivado/2018.1/win64/tools/clang/bin\5C..\5Clib\5Cclang\5C3.1/../../../include/c++/4.5.2\5Cbits/basic_string.h", metadata !"C:\5CUsers\5Ccaiyujie\5CDesktop\5Cgongkaike_hls\5Ccode\5Cday6", null} ; [ DW_TAG_file_type ]
!288 = metadata !{i32 786434, metadata !283, metadata !"_Alloc_hider", metadata !287, i32 257, i64 64, i64 64, i32 0, i32 0, null, metadata !289, i32 0, null, null} ; [ DW_TAG_class_type ]
!289 = metadata !{metadata !290, metadata !354, metadata !355}
!290 = metadata !{i32 786460, metadata !288, null, metadata !287, i32 0, i64 0, i64 0, i64 0, i32 0, metadata !291} ; [ DW_TAG_inheritance ]
!291 = metadata !{i32 786434, metadata !281, metadata !"allocator<char>", metadata !292, i32 138, i64 8, i64 8, i32 0, i32 0, null, metadata !293, i32 0, null, metadata !352} ; [ DW_TAG_class_type ]
!292 = metadata !{i32 786473, metadata !"C:/Xilinx/Vivado/2018.1/win64/tools/clang/bin\5C..\5Clib\5Cclang\5C3.1/../../../include/c++/4.5.2\5Cbits/allocator.h", metadata !"C:\5CUsers\5Ccaiyujie\5CDesktop\5Cgongkaike_hls\5Ccode\5Cday6", null} ; [ DW_TAG_file_type ]
!293 = metadata !{metadata !294, metadata !342, metadata !346, metadata !351}
!294 = metadata !{i32 786460, metadata !291, null, metadata !292, i32 0, i64 0, i64 0, i64 0, i32 0, metadata !295} ; [ DW_TAG_inheritance ]
!295 = metadata !{i32 786434, metadata !296, metadata !"new_allocator<char>", metadata !297, i32 51, i64 8, i64 8, i32 0, i32 0, null, metadata !298, i32 0, null, metadata !340} ; [ DW_TAG_class_type ]
!296 = metadata !{i32 786489, null, metadata !"__gnu_cxx", metadata !297, i32 37} ; [ DW_TAG_namespace ]
!297 = metadata !{i32 786473, metadata !"C:/Xilinx/Vivado/2018.1/win64/tools/clang/bin\5C..\5Clib\5Cclang\5C3.1/../../../include/c++/4.5.2\5Cext/new_allocator.h", metadata !"C:\5CUsers\5Ccaiyujie\5CDesktop\5Cgongkaike_hls\5Ccode\5Cday6", null} ; [ DW_TAG_file_type ]
!298 = metadata !{metadata !299, metadata !303, metadata !308, metadata !309, metadata !316, metadata !322, metadata !328, metadata !331, metadata !334, metadata !337}
!299 = metadata !{i32 786478, i32 0, metadata !295, metadata !"new_allocator", metadata !"new_allocator", metadata !"", metadata !297, i32 66, metadata !300, i1 false, i1 false, i32 0, i32 0, null, i32 256, i1 false, null, null, i32 0, metadata !87, i32 66} ; [ DW_TAG_subprogram ]
!300 = metadata !{i32 786453, i32 0, metadata !"", i32 0, i32 0, i64 0, i64 0, i64 0, i32 0, null, metadata !301, i32 0, i32 0} ; [ DW_TAG_subroutine_type ]
!301 = metadata !{null, metadata !302}
!302 = metadata !{i32 786447, i32 0, metadata !"", i32 0, i32 0, i64 64, i64 64, i64 0, i32 64, metadata !295} ; [ DW_TAG_pointer_type ]
!303 = metadata !{i32 786478, i32 0, metadata !295, metadata !"new_allocator", metadata !"new_allocator", metadata !"", metadata !297, i32 68, metadata !304, i1 false, i1 false, i32 0, i32 0, null, i32 256, i1 false, null, null, i32 0, metadata !87, i32 68} ; [ DW_TAG_subprogram ]
!304 = metadata !{i32 786453, i32 0, metadata !"", i32 0, i32 0, i64 0, i64 0, i64 0, i32 0, null, metadata !305, i32 0, i32 0} ; [ DW_TAG_subroutine_type ]
!305 = metadata !{null, metadata !302, metadata !306}
!306 = metadata !{i32 786448, null, null, null, i32 0, i64 0, i64 0, i64 0, i32 0, metadata !307} ; [ DW_TAG_reference_type ]
!307 = metadata !{i32 786470, null, metadata !"", null, i32 0, i64 0, i64 0, i64 0, i32 0, metadata !295} ; [ DW_TAG_const_type ]
!308 = metadata !{i32 786478, i32 0, metadata !295, metadata !"~new_allocator", metadata !"~new_allocator", metadata !"", metadata !297, i32 73, metadata !300, i1 false, i1 false, i32 0, i32 0, null, i32 256, i1 false, null, null, i32 0, metadata !87, i32 73} ; [ DW_TAG_subprogram ]
!309 = metadata !{i32 786478, i32 0, metadata !295, metadata !"address", metadata !"address", metadata !"_ZNK9__gnu_cxx13new_allocatorIcE7addressERc", metadata !297, i32 76, metadata !310, i1 false, i1 false, i32 0, i32 0, null, i32 256, i1 false, null, null, i32 0, metadata !87, i32 76} ; [ DW_TAG_subprogram ]
!310 = metadata !{i32 786453, i32 0, metadata !"", i32 0, i32 0, i64 0, i64 0, i64 0, i32 0, null, metadata !311, i32 0, i32 0} ; [ DW_TAG_subroutine_type ]
!311 = metadata !{metadata !312, metadata !313, metadata !314}
!312 = metadata !{i32 786454, metadata !295, metadata !"pointer", metadata !297, i32 56, i64 0, i64 0, i64 0, i32 0, metadata !188} ; [ DW_TAG_typedef ]
!313 = metadata !{i32 786447, i32 0, metadata !"", i32 0, i32 0, i64 64, i64 64, i64 0, i32 64, metadata !307} ; [ DW_TAG_pointer_type ]
!314 = metadata !{i32 786454, metadata !295, metadata !"reference", metadata !297, i32 58, i64 0, i64 0, i64 0, i32 0, metadata !315} ; [ DW_TAG_typedef ]
!315 = metadata !{i32 786448, null, null, null, i32 0, i64 0, i64 0, i64 0, i32 0, metadata !153} ; [ DW_TAG_reference_type ]
!316 = metadata !{i32 786478, i32 0, metadata !295, metadata !"address", metadata !"address", metadata !"_ZNK9__gnu_cxx13new_allocatorIcE7addressERKc", metadata !297, i32 79, metadata !317, i1 false, i1 false, i32 0, i32 0, null, i32 256, i1 false, null, null, i32 0, metadata !87, i32 79} ; [ DW_TAG_subprogram ]
!317 = metadata !{i32 786453, i32 0, metadata !"", i32 0, i32 0, i64 0, i64 0, i64 0, i32 0, null, metadata !318, i32 0, i32 0} ; [ DW_TAG_subroutine_type ]
!318 = metadata !{metadata !319, metadata !313, metadata !320}
!319 = metadata !{i32 786454, metadata !295, metadata !"const_pointer", metadata !297, i32 57, i64 0, i64 0, i64 0, i32 0, metadata !151} ; [ DW_TAG_typedef ]
!320 = metadata !{i32 786454, metadata !295, metadata !"const_reference", metadata !297, i32 59, i64 0, i64 0, i64 0, i32 0, metadata !321} ; [ DW_TAG_typedef ]
!321 = metadata !{i32 786448, null, null, null, i32 0, i64 0, i64 0, i64 0, i32 0, metadata !152} ; [ DW_TAG_reference_type ]
!322 = metadata !{i32 786478, i32 0, metadata !295, metadata !"allocate", metadata !"allocate", metadata !"_ZN9__gnu_cxx13new_allocatorIcE8allocateEyPKv", metadata !297, i32 84, metadata !323, i1 false, i1 false, i32 0, i32 0, null, i32 256, i1 false, null, null, i32 0, metadata !87, i32 84} ; [ DW_TAG_subprogram ]
!323 = metadata !{i32 786453, i32 0, metadata !"", i32 0, i32 0, i64 0, i64 0, i64 0, i32 0, null, metadata !324, i32 0, i32 0} ; [ DW_TAG_subroutine_type ]
!324 = metadata !{metadata !312, metadata !302, metadata !325, metadata !326}
!325 = metadata !{i32 786454, null, metadata !"size_type", metadata !297, i32 54, i64 0, i64 0, i64 0, i32 0, metadata !138} ; [ DW_TAG_typedef ]
!326 = metadata !{i32 786447, null, metadata !"", null, i32 0, i64 64, i64 64, i64 0, i32 0, metadata !327} ; [ DW_TAG_pointer_type ]
!327 = metadata !{i32 786470, null, metadata !"", null, i32 0, i64 0, i64 0, i64 0, i32 0, null} ; [ DW_TAG_const_type ]
!328 = metadata !{i32 786478, i32 0, metadata !295, metadata !"deallocate", metadata !"deallocate", metadata !"_ZN9__gnu_cxx13new_allocatorIcE10deallocateEPcy", metadata !297, i32 94, metadata !329, i1 false, i1 false, i32 0, i32 0, null, i32 256, i1 false, null, null, i32 0, metadata !87, i32 94} ; [ DW_TAG_subprogram ]
!329 = metadata !{i32 786453, i32 0, metadata !"", i32 0, i32 0, i64 0, i64 0, i64 0, i32 0, null, metadata !330, i32 0, i32 0} ; [ DW_TAG_subroutine_type ]
!330 = metadata !{null, metadata !302, metadata !312, metadata !325}
!331 = metadata !{i32 786478, i32 0, metadata !295, metadata !"max_size", metadata !"max_size", metadata !"_ZNK9__gnu_cxx13new_allocatorIcE8max_sizeEv", metadata !297, i32 98, metadata !332, i1 false, i1 false, i32 0, i32 0, null, i32 256, i1 false, null, null, i32 0, metadata !87, i32 98} ; [ DW_TAG_subprogram ]
!332 = metadata !{i32 786453, i32 0, metadata !"", i32 0, i32 0, i64 0, i64 0, i64 0, i32 0, null, metadata !333, i32 0, i32 0} ; [ DW_TAG_subroutine_type ]
!333 = metadata !{metadata !325, metadata !313}
!334 = metadata !{i32 786478, i32 0, metadata !295, metadata !"construct", metadata !"construct", metadata !"_ZN9__gnu_cxx13new_allocatorIcE9constructEPcRKc", metadata !297, i32 104, metadata !335, i1 false, i1 false, i32 0, i32 0, null, i32 256, i1 false, null, null, i32 0, metadata !87, i32 104} ; [ DW_TAG_subprogram ]
!335 = metadata !{i32 786453, i32 0, metadata !"", i32 0, i32 0, i64 0, i64 0, i64 0, i32 0, null, metadata !336, i32 0, i32 0} ; [ DW_TAG_subroutine_type ]
!336 = metadata !{null, metadata !302, metadata !312, metadata !321}
!337 = metadata !{i32 786478, i32 0, metadata !295, metadata !"destroy", metadata !"destroy", metadata !"_ZN9__gnu_cxx13new_allocatorIcE7destroyEPc", metadata !297, i32 115, metadata !338, i1 false, i1 false, i32 0, i32 0, null, i32 256, i1 false, null, null, i32 0, metadata !87, i32 115} ; [ DW_TAG_subprogram ]
!338 = metadata !{i32 786453, i32 0, metadata !"", i32 0, i32 0, i64 0, i64 0, i64 0, i32 0, null, metadata !339, i32 0, i32 0} ; [ DW_TAG_subroutine_type ]
!339 = metadata !{null, metadata !302, metadata !312}
!340 = metadata !{metadata !341}
!341 = metadata !{i32 786479, null, metadata !"_Tp", metadata !153, null, i32 0, i32 0} ; [ DW_TAG_template_type_parameter ]
!342 = metadata !{i32 786478, i32 0, metadata !291, metadata !"allocator", metadata !"allocator", metadata !"", metadata !292, i32 101, metadata !343, i1 false, i1 false, i32 0, i32 0, null, i32 256, i1 false, null, null, i32 0, metadata !87, i32 101} ; [ DW_TAG_subprogram ]
!343 = metadata !{i32 786453, i32 0, metadata !"", i32 0, i32 0, i64 0, i64 0, i64 0, i32 0, null, metadata !344, i32 0, i32 0} ; [ DW_TAG_subroutine_type ]
!344 = metadata !{null, metadata !345}
!345 = metadata !{i32 786447, i32 0, metadata !"", i32 0, i32 0, i64 64, i64 64, i64 0, i32 64, metadata !291} ; [ DW_TAG_pointer_type ]
!346 = metadata !{i32 786478, i32 0, metadata !291, metadata !"allocator", metadata !"allocator", metadata !"", metadata !292, i32 103, metadata !347, i1 false, i1 false, i32 0, i32 0, null, i32 256, i1 false, null, null, i32 0, metadata !87, i32 103} ; [ DW_TAG_subprogram ]
!347 = metadata !{i32 786453, i32 0, metadata !"", i32 0, i32 0, i64 0, i64 0, i64 0, i32 0, null, metadata !348, i32 0, i32 0} ; [ DW_TAG_subroutine_type ]
!348 = metadata !{null, metadata !345, metadata !349}
!349 = metadata !{i32 786448, null, null, null, i32 0, i64 0, i64 0, i64 0, i32 0, metadata !350} ; [ DW_TAG_reference_type ]
!350 = metadata !{i32 786470, null, metadata !"", null, i32 0, i64 0, i64 0, i64 0, i32 0, metadata !291} ; [ DW_TAG_const_type ]
!351 = metadata !{i32 786478, i32 0, metadata !291, metadata !"~allocator", metadata !"~allocator", metadata !"", metadata !292, i32 109, metadata !343, i1 false, i1 false, i32 0, i32 0, null, i32 256, i1 false, null, null, i32 0, metadata !87, i32 109} ; [ DW_TAG_subprogram ]
!352 = metadata !{metadata !353}
!353 = metadata !{i32 786479, null, metadata !"_Alloc", metadata !153, null, i32 0, i32 0} ; [ DW_TAG_template_type_parameter ]
!354 = metadata !{i32 786445, metadata !288, metadata !"_M_p", metadata !287, i32 262, i64 64, i64 64, i64 0, i32 0, metadata !188} ; [ DW_TAG_member ]
!355 = metadata !{i32 786478, i32 0, metadata !288, metadata !"_Alloc_hider", metadata !"_Alloc_hider", metadata !"", metadata !287, i32 259, metadata !356, i1 false, i1 false, i32 0, i32 0, null, i32 256, i1 false, null, null, i32 0, metadata !87, i32 259} ; [ DW_TAG_subprogram ]
!356 = metadata !{i32 786453, i32 0, metadata !"", i32 0, i32 0, i64 0, i64 0, i64 0, i32 0, null, metadata !357, i32 0, i32 0} ; [ DW_TAG_subroutine_type ]
!357 = metadata !{null, metadata !358, metadata !188, metadata !349}
!358 = metadata !{i32 786447, i32 0, metadata !"", i32 0, i32 0, i64 64, i64 64, i64 0, i32 64, metadata !288} ; [ DW_TAG_pointer_type ]
!359 = metadata !{i32 786478, i32 0, metadata !283, metadata !"_M_data", metadata !"_M_data", metadata !"_ZNKSs7_M_dataEv", metadata !287, i32 277, metadata !360, i1 false, i1 false, i32 0, i32 0, null, i32 257, i1 false, null, null, i32 0, metadata !87, i32 277} ; [ DW_TAG_subprogram ]
!360 = metadata !{i32 786453, i32 0, metadata !"", i32 0, i32 0, i64 0, i64 0, i64 0, i32 0, null, metadata !361, i32 0, i32 0} ; [ DW_TAG_subroutine_type ]
!361 = metadata !{metadata !188, metadata !362}
!362 = metadata !{i32 786447, i32 0, metadata !"", i32 0, i32 0, i64 64, i64 64, i64 0, i32 64, metadata !363} ; [ DW_TAG_pointer_type ]
!363 = metadata !{i32 786470, null, metadata !"", null, i32 0, i64 0, i64 0, i64 0, i32 0, metadata !283} ; [ DW_TAG_const_type ]
!364 = metadata !{i32 786478, i32 0, metadata !283, metadata !"_M_data", metadata !"_M_data", metadata !"_ZNSs7_M_dataEPc", metadata !287, i32 281, metadata !365, i1 false, i1 false, i32 0, i32 0, null, i32 257, i1 false, null, null, i32 0, metadata !87, i32 281} ; [ DW_TAG_subprogram ]
!365 = metadata !{i32 786453, i32 0, metadata !"", i32 0, i32 0, i64 0, i64 0, i64 0, i32 0, null, metadata !366, i32 0, i32 0} ; [ DW_TAG_subroutine_type ]
!366 = metadata !{metadata !188, metadata !367, metadata !188}
!367 = metadata !{i32 786447, i32 0, metadata !"", i32 0, i32 0, i64 64, i64 64, i64 0, i32 64, metadata !283} ; [ DW_TAG_pointer_type ]
!368 = metadata !{i32 786478, i32 0, metadata !283, metadata !"_M_rep", metadata !"_M_rep", metadata !"_ZNKSs6_M_repEv", metadata !287, i32 285, metadata !369, i1 false, i1 false, i32 0, i32 0, null, i32 257, i1 false, null, null, i32 0, metadata !87, i32 285} ; [ DW_TAG_subprogram ]
!369 = metadata !{i32 786453, i32 0, metadata !"", i32 0, i32 0, i64 0, i64 0, i64 0, i32 0, null, metadata !370, i32 0, i32 0} ; [ DW_TAG_subroutine_type ]
!370 = metadata !{metadata !371, metadata !362}
!371 = metadata !{i32 786447, null, metadata !"", null, i32 0, i64 64, i64 64, i64 0, i32 0, metadata !372} ; [ DW_TAG_pointer_type ]
!372 = metadata !{i32 786434, metadata !283, metadata !"_Rep", metadata !287, i32 147, i64 192, i64 64, i32 0, i32 0, null, metadata !373, i32 0, null, null} ; [ DW_TAG_class_type ]
!373 = metadata !{metadata !374, metadata !382, metadata !386, metadata !391, metadata !392, metadata !396, metadata !397, metadata !400, metadata !403, metadata !406, metadata !409, metadata !412, metadata !413, metadata !414}
!374 = metadata !{i32 786460, metadata !372, null, metadata !287, i32 0, i64 0, i64 0, i64 0, i32 0, metadata !375} ; [ DW_TAG_inheritance ]
!375 = metadata !{i32 786434, metadata !283, metadata !"_Rep_base", metadata !287, i32 140, i64 192, i64 64, i32 0, i32 0, null, metadata !376, i32 0, null, null} ; [ DW_TAG_class_type ]
!376 = metadata !{metadata !377, metadata !380, metadata !381}
!377 = metadata !{i32 786445, metadata !375, metadata !"_M_length", metadata !287, i32 142, i64 64, i64 64, i64 0, i32 0, metadata !378} ; [ DW_TAG_member ]
!378 = metadata !{i32 786454, metadata !283, metadata !"size_type", metadata !287, i32 113, i64 0, i64 0, i64 0, i32 0, metadata !379} ; [ DW_TAG_typedef ]
!379 = metadata !{i32 786454, metadata !291, metadata !"size_type", metadata !287, i32 89, i64 0, i64 0, i64 0, i32 0, metadata !138} ; [ DW_TAG_typedef ]
!380 = metadata !{i32 786445, metadata !375, metadata !"_M_capacity", metadata !287, i32 143, i64 64, i64 64, i64 64, i32 0, metadata !378} ; [ DW_TAG_member ]
!381 = metadata !{i32 786445, metadata !375, metadata !"_M_refcount", metadata !287, i32 144, i64 32, i64 32, i64 128, i32 0, metadata !82} ; [ DW_TAG_member ]
!382 = metadata !{i32 786478, i32 0, metadata !372, metadata !"_S_empty_rep", metadata !"_S_empty_rep", metadata !"_ZNSs4_Rep12_S_empty_repEv", metadata !287, i32 173, metadata !383, i1 false, i1 false, i32 0, i32 0, null, i32 256, i1 false, null, null, i32 0, metadata !87, i32 173} ; [ DW_TAG_subprogram ]
!383 = metadata !{i32 786453, i32 0, metadata !"", i32 0, i32 0, i64 0, i64 0, i64 0, i32 0, null, metadata !384, i32 0, i32 0} ; [ DW_TAG_subroutine_type ]
!384 = metadata !{metadata !385}
!385 = metadata !{i32 786448, null, null, null, i32 0, i64 0, i64 0, i64 0, i32 0, metadata !372} ; [ DW_TAG_reference_type ]
!386 = metadata !{i32 786478, i32 0, metadata !372, metadata !"_M_is_leaked", metadata !"_M_is_leaked", metadata !"_ZNKSs4_Rep12_M_is_leakedEv", metadata !287, i32 183, metadata !387, i1 false, i1 false, i32 0, i32 0, null, i32 256, i1 false, null, null, i32 0, metadata !87, i32 183} ; [ DW_TAG_subprogram ]
!387 = metadata !{i32 786453, i32 0, metadata !"", i32 0, i32 0, i64 0, i64 0, i64 0, i32 0, null, metadata !388, i32 0, i32 0} ; [ DW_TAG_subroutine_type ]
!388 = metadata !{metadata !213, metadata !389}
!389 = metadata !{i32 786447, i32 0, metadata !"", i32 0, i32 0, i64 64, i64 64, i64 0, i32 64, metadata !390} ; [ DW_TAG_pointer_type ]
!390 = metadata !{i32 786470, null, metadata !"", null, i32 0, i64 0, i64 0, i64 0, i32 0, metadata !372} ; [ DW_TAG_const_type ]
!391 = metadata !{i32 786478, i32 0, metadata !372, metadata !"_M_is_shared", metadata !"_M_is_shared", metadata !"_ZNKSs4_Rep12_M_is_sharedEv", metadata !287, i32 187, metadata !387, i1 false, i1 false, i32 0, i32 0, null, i32 256, i1 false, null, null, i32 0, metadata !87, i32 187} ; [ DW_TAG_subprogram ]
!392 = metadata !{i32 786478, i32 0, metadata !372, metadata !"_M_set_leaked", metadata !"_M_set_leaked", metadata !"_ZNSs4_Rep13_M_set_leakedEv", metadata !287, i32 191, metadata !393, i1 false, i1 false, i32 0, i32 0, null, i32 256, i1 false, null, null, i32 0, metadata !87, i32 191} ; [ DW_TAG_subprogram ]
!393 = metadata !{i32 786453, i32 0, metadata !"", i32 0, i32 0, i64 0, i64 0, i64 0, i32 0, null, metadata !394, i32 0, i32 0} ; [ DW_TAG_subroutine_type ]
!394 = metadata !{null, metadata !395}
!395 = metadata !{i32 786447, i32 0, metadata !"", i32 0, i32 0, i64 64, i64 64, i64 0, i32 64, metadata !372} ; [ DW_TAG_pointer_type ]
!396 = metadata !{i32 786478, i32 0, metadata !372, metadata !"_M_set_sharable", metadata !"_M_set_sharable", metadata !"_ZNSs4_Rep15_M_set_sharableEv", metadata !287, i32 195, metadata !393, i1 false, i1 false, i32 0, i32 0, null, i32 256, i1 false, null, null, i32 0, metadata !87, i32 195} ; [ DW_TAG_subprogram ]
!397 = metadata !{i32 786478, i32 0, metadata !372, metadata !"_M_set_length_and_sharable", metadata !"_M_set_length_and_sharable", metadata !"_ZNSs4_Rep26_M_set_length_and_sharableEy", metadata !287, i32 199, metadata !398, i1 false, i1 false, i32 0, i32 0, null, i32 256, i1 false, null, null, i32 0, metadata !87, i32 199} ; [ DW_TAG_subprogram ]
!398 = metadata !{i32 786453, i32 0, metadata !"", i32 0, i32 0, i64 0, i64 0, i64 0, i32 0, null, metadata !399, i32 0, i32 0} ; [ DW_TAG_subroutine_type ]
!399 = metadata !{null, metadata !395, metadata !378}
!400 = metadata !{i32 786478, i32 0, metadata !372, metadata !"_M_refdata", metadata !"_M_refdata", metadata !"_ZNSs4_Rep10_M_refdataEv", metadata !287, i32 214, metadata !401, i1 false, i1 false, i32 0, i32 0, null, i32 256, i1 false, null, null, i32 0, metadata !87, i32 214} ; [ DW_TAG_subprogram ]
!401 = metadata !{i32 786453, i32 0, metadata !"", i32 0, i32 0, i64 0, i64 0, i64 0, i32 0, null, metadata !402, i32 0, i32 0} ; [ DW_TAG_subroutine_type ]
!402 = metadata !{metadata !188, metadata !395}
!403 = metadata !{i32 786478, i32 0, metadata !372, metadata !"_M_grab", metadata !"_M_grab", metadata !"_ZNSs4_Rep7_M_grabERKSaIcES2_", metadata !287, i32 218, metadata !404, i1 false, i1 false, i32 0, i32 0, null, i32 256, i1 false, null, null, i32 0, metadata !87, i32 218} ; [ DW_TAG_subprogram ]
!404 = metadata !{i32 786453, i32 0, metadata !"", i32 0, i32 0, i64 0, i64 0, i64 0, i32 0, null, metadata !405, i32 0, i32 0} ; [ DW_TAG_subroutine_type ]
!405 = metadata !{metadata !188, metadata !395, metadata !349, metadata !349}
!406 = metadata !{i32 786478, i32 0, metadata !372, metadata !"_S_create", metadata !"_S_create", metadata !"_ZNSs4_Rep9_S_createEyyRKSaIcE", metadata !287, i32 226, metadata !407, i1 false, i1 false, i32 0, i32 0, null, i32 256, i1 false, null, null, i32 0, metadata !87, i32 226} ; [ DW_TAG_subprogram ]
!407 = metadata !{i32 786453, i32 0, metadata !"", i32 0, i32 0, i64 0, i64 0, i64 0, i32 0, null, metadata !408, i32 0, i32 0} ; [ DW_TAG_subroutine_type ]
!408 = metadata !{metadata !371, metadata !378, metadata !378, metadata !349}
!409 = metadata !{i32 786478, i32 0, metadata !372, metadata !"_M_dispose", metadata !"_M_dispose", metadata !"_ZNSs4_Rep10_M_disposeERKSaIcE", metadata !287, i32 229, metadata !410, i1 false, i1 false, i32 0, i32 0, null, i32 256, i1 false, null, null, i32 0, metadata !87, i32 229} ; [ DW_TAG_subprogram ]
!410 = metadata !{i32 786453, i32 0, metadata !"", i32 0, i32 0, i64 0, i64 0, i64 0, i32 0, null, metadata !411, i32 0, i32 0} ; [ DW_TAG_subroutine_type ]
!411 = metadata !{null, metadata !395, metadata !349}
!412 = metadata !{i32 786478, i32 0, metadata !372, metadata !"_M_destroy", metadata !"_M_destroy", metadata !"_ZNSs4_Rep10_M_destroyERKSaIcE", metadata !287, i32 240, metadata !410, i1 false, i1 false, i32 0, i32 0, null, i32 256, i1 false, null, null, i32 0, metadata !87, i32 240} ; [ DW_TAG_subprogram ]
!413 = metadata !{i32 786478, i32 0, metadata !372, metadata !"_M_refcopy", metadata !"_M_refcopy", metadata !"_ZNSs4_Rep10_M_refcopyEv", metadata !287, i32 243, metadata !401, i1 false, i1 false, i32 0, i32 0, null, i32 256, i1 false, null, null, i32 0, metadata !87, i32 243} ; [ DW_TAG_subprogram ]
!414 = metadata !{i32 786478, i32 0, metadata !372, metadata !"_M_clone", metadata !"_M_clone", metadata !"_ZNSs4_Rep8_M_cloneERKSaIcEy", metadata !287, i32 253, metadata !415, i1 false, i1 false, i32 0, i32 0, null, i32 256, i1 false, null, null, i32 0, metadata !87, i32 253} ; [ DW_TAG_subprogram ]
!415 = metadata !{i32 786453, i32 0, metadata !"", i32 0, i32 0, i64 0, i64 0, i64 0, i32 0, null, metadata !416, i32 0, i32 0} ; [ DW_TAG_subroutine_type ]
!416 = metadata !{metadata !188, metadata !395, metadata !349, metadata !378}
!417 = metadata !{i32 786478, i32 0, metadata !283, metadata !"_M_ibegin", metadata !"_M_ibegin", metadata !"_ZNKSs9_M_ibeginEv", metadata !287, i32 291, metadata !418, i1 false, i1 false, i32 0, i32 0, null, i32 257, i1 false, null, null, i32 0, metadata !87, i32 291} ; [ DW_TAG_subprogram ]
!418 = metadata !{i32 786453, i32 0, metadata !"", i32 0, i32 0, i64 0, i64 0, i64 0, i32 0, null, metadata !419, i32 0, i32 0} ; [ DW_TAG_subroutine_type ]
!419 = metadata !{metadata !420, metadata !362}
!420 = metadata !{i32 786454, metadata !283, metadata !"iterator", metadata !284, i32 119, i64 0, i64 0, i64 0, i32 0, metadata !421} ; [ DW_TAG_typedef ]
!421 = metadata !{i32 786434, null, metadata !"__normal_iterator<char *, std::basic_string<char> >", metadata !422, i32 697, i64 0, i64 0, i32 0, i32 4, null, null, i32 0, null, metadata !423} ; [ DW_TAG_class_type ]
!422 = metadata !{i32 786473, metadata !"C:/Xilinx/Vivado/2018.1/win64/tools/clang/bin\5C..\5Clib\5Cclang\5C3.1/../../../include/c++/4.5.2\5Cbits/stl_iterator.h", metadata !"C:\5CUsers\5Ccaiyujie\5CDesktop\5Cgongkaike_hls\5Ccode\5Cday6", null} ; [ DW_TAG_file_type ]
!423 = metadata !{metadata !424, metadata !425}
!424 = metadata !{i32 786479, null, metadata !"_Iterator", metadata !188, null, i32 0, i32 0} ; [ DW_TAG_template_type_parameter ]
!425 = metadata !{i32 786479, null, metadata !"_Container", metadata !283, null, i32 0, i32 0} ; [ DW_TAG_template_type_parameter ]
!426 = metadata !{i32 786478, i32 0, metadata !283, metadata !"_M_iend", metadata !"_M_iend", metadata !"_ZNKSs7_M_iendEv", metadata !287, i32 295, metadata !418, i1 false, i1 false, i32 0, i32 0, null, i32 257, i1 false, null, null, i32 0, metadata !87, i32 295} ; [ DW_TAG_subprogram ]
!427 = metadata !{i32 786478, i32 0, metadata !283, metadata !"_M_leak", metadata !"_M_leak", metadata !"_ZNSs7_M_leakEv", metadata !287, i32 299, metadata !428, i1 false, i1 false, i32 0, i32 0, null, i32 257, i1 false, null, null, i32 0, metadata !87, i32 299} ; [ DW_TAG_subprogram ]
!428 = metadata !{i32 786453, i32 0, metadata !"", i32 0, i32 0, i64 0, i64 0, i64 0, i32 0, null, metadata !429, i32 0, i32 0} ; [ DW_TAG_subroutine_type ]
!429 = metadata !{null, metadata !367}
!430 = metadata !{i32 786478, i32 0, metadata !283, metadata !"_M_check", metadata !"_M_check", metadata !"_ZNKSs8_M_checkEyPKc", metadata !287, i32 306, metadata !431, i1 false, i1 false, i32 0, i32 0, null, i32 257, i1 false, null, null, i32 0, metadata !87, i32 306} ; [ DW_TAG_subprogram ]
!431 = metadata !{i32 786453, i32 0, metadata !"", i32 0, i32 0, i64 0, i64 0, i64 0, i32 0, null, metadata !432, i32 0, i32 0} ; [ DW_TAG_subroutine_type ]
!432 = metadata !{metadata !378, metadata !362, metadata !378, metadata !151}
!433 = metadata !{i32 786478, i32 0, metadata !283, metadata !"_M_check_length", metadata !"_M_check_length", metadata !"_ZNKSs15_M_check_lengthEyyPKc", metadata !287, i32 314, metadata !434, i1 false, i1 false, i32 0, i32 0, null, i32 257, i1 false, null, null, i32 0, metadata !87, i32 314} ; [ DW_TAG_subprogram ]
!434 = metadata !{i32 786453, i32 0, metadata !"", i32 0, i32 0, i64 0, i64 0, i64 0, i32 0, null, metadata !435, i32 0, i32 0} ; [ DW_TAG_subroutine_type ]
!435 = metadata !{null, metadata !362, metadata !378, metadata !378, metadata !151}
!436 = metadata !{i32 786478, i32 0, metadata !283, metadata !"_M_limit", metadata !"_M_limit", metadata !"_ZNKSs8_M_limitEyy", metadata !287, i32 322, metadata !437, i1 false, i1 false, i32 0, i32 0, null, i32 257, i1 false, null, null, i32 0, metadata !87, i32 322} ; [ DW_TAG_subprogram ]
!437 = metadata !{i32 786453, i32 0, metadata !"", i32 0, i32 0, i64 0, i64 0, i64 0, i32 0, null, metadata !438, i32 0, i32 0} ; [ DW_TAG_subroutine_type ]
!438 = metadata !{metadata !378, metadata !362, metadata !378, metadata !378}
!439 = metadata !{i32 786478, i32 0, metadata !283, metadata !"_M_disjunct", metadata !"_M_disjunct", metadata !"_ZNKSs11_M_disjunctEPKc", metadata !287, i32 330, metadata !440, i1 false, i1 false, i32 0, i32 0, null, i32 257, i1 false, null, null, i32 0, metadata !87, i32 330} ; [ DW_TAG_subprogram ]
!440 = metadata !{i32 786453, i32 0, metadata !"", i32 0, i32 0, i64 0, i64 0, i64 0, i32 0, null, metadata !441, i32 0, i32 0} ; [ DW_TAG_subroutine_type ]
!441 = metadata !{metadata !213, metadata !362, metadata !151}
!442 = metadata !{i32 786478, i32 0, metadata !283, metadata !"_M_copy", metadata !"_M_copy", metadata !"_ZNSs7_M_copyEPcPKcy", metadata !287, i32 339, metadata !443, i1 false, i1 false, i32 0, i32 0, null, i32 257, i1 false, null, null, i32 0, metadata !87, i32 339} ; [ DW_TAG_subprogram ]
!443 = metadata !{i32 786453, i32 0, metadata !"", i32 0, i32 0, i64 0, i64 0, i64 0, i32 0, null, metadata !444, i32 0, i32 0} ; [ DW_TAG_subroutine_type ]
!444 = metadata !{null, metadata !188, metadata !151, metadata !378}
!445 = metadata !{i32 786478, i32 0, metadata !283, metadata !"_M_move", metadata !"_M_move", metadata !"_ZNSs7_M_moveEPcPKcy", metadata !287, i32 348, metadata !443, i1 false, i1 false, i32 0, i32 0, null, i32 257, i1 false, null, null, i32 0, metadata !87, i32 348} ; [ DW_TAG_subprogram ]
!446 = metadata !{i32 786478, i32 0, metadata !283, metadata !"_M_assign", metadata !"_M_assign", metadata !"_ZNSs9_M_assignEPcyc", metadata !287, i32 357, metadata !447, i1 false, i1 false, i32 0, i32 0, null, i32 257, i1 false, null, null, i32 0, metadata !87, i32 357} ; [ DW_TAG_subprogram ]
!447 = metadata !{i32 786453, i32 0, metadata !"", i32 0, i32 0, i64 0, i64 0, i64 0, i32 0, null, metadata !448, i32 0, i32 0} ; [ DW_TAG_subroutine_type ]
!448 = metadata !{null, metadata !188, metadata !378, metadata !153}
!449 = metadata !{i32 786478, i32 0, metadata !283, metadata !"_S_copy_chars", metadata !"_S_copy_chars", metadata !"_ZNSs13_S_copy_charsEPcN9__gnu_cxx17__normal_iteratorIS_SsEES2_", metadata !287, i32 376, metadata !450, i1 false, i1 false, i32 0, i32 0, null, i32 257, i1 false, null, null, i32 0, metadata !87, i32 376} ; [ DW_TAG_subprogram ]
!450 = metadata !{i32 786453, i32 0, metadata !"", i32 0, i32 0, i64 0, i64 0, i64 0, i32 0, null, metadata !451, i32 0, i32 0} ; [ DW_TAG_subroutine_type ]
!451 = metadata !{null, metadata !188, metadata !420, metadata !420}
!452 = metadata !{i32 786478, i32 0, metadata !283, metadata !"_S_copy_chars", metadata !"_S_copy_chars", metadata !"_ZNSs13_S_copy_charsEPcN9__gnu_cxx17__normal_iteratorIPKcSsEES4_", metadata !287, i32 380, metadata !453, i1 false, i1 false, i32 0, i32 0, null, i32 257, i1 false, null, null, i32 0, metadata !87, i32 380} ; [ DW_TAG_subprogram ]
!453 = metadata !{i32 786453, i32 0, metadata !"", i32 0, i32 0, i64 0, i64 0, i64 0, i32 0, null, metadata !454, i32 0, i32 0} ; [ DW_TAG_subroutine_type ]
!454 = metadata !{null, metadata !188, metadata !455, metadata !455}
!455 = metadata !{i32 786454, metadata !283, metadata !"const_iterator", metadata !284, i32 121, i64 0, i64 0, i64 0, i32 0, metadata !456} ; [ DW_TAG_typedef ]
!456 = metadata !{i32 786434, null, metadata !"__normal_iterator<const char *, std::basic_string<char> >", metadata !422, i32 697, i64 0, i64 0, i32 0, i32 4, null, null, i32 0, null, metadata !457} ; [ DW_TAG_class_type ]
!457 = metadata !{metadata !458, metadata !425}
!458 = metadata !{i32 786479, null, metadata !"_Iterator", metadata !151, null, i32 0, i32 0} ; [ DW_TAG_template_type_parameter ]
!459 = metadata !{i32 786478, i32 0, metadata !283, metadata !"_S_copy_chars", metadata !"_S_copy_chars", metadata !"_ZNSs13_S_copy_charsEPcS_S_", metadata !287, i32 384, metadata !460, i1 false, i1 false, i32 0, i32 0, null, i32 257, i1 false, null, null, i32 0, metadata !87, i32 384} ; [ DW_TAG_subprogram ]
!460 = metadata !{i32 786453, i32 0, metadata !"", i32 0, i32 0, i64 0, i64 0, i64 0, i32 0, null, metadata !461, i32 0, i32 0} ; [ DW_TAG_subroutine_type ]
!461 = metadata !{null, metadata !188, metadata !188, metadata !188}
!462 = metadata !{i32 786478, i32 0, metadata !283, metadata !"_S_copy_chars", metadata !"_S_copy_chars", metadata !"_ZNSs13_S_copy_charsEPcPKcS1_", metadata !287, i32 388, metadata !463, i1 false, i1 false, i32 0, i32 0, null, i32 257, i1 false, null, null, i32 0, metadata !87, i32 388} ; [ DW_TAG_subprogram ]
!463 = metadata !{i32 786453, i32 0, metadata !"", i32 0, i32 0, i64 0, i64 0, i64 0, i32 0, null, metadata !464, i32 0, i32 0} ; [ DW_TAG_subroutine_type ]
!464 = metadata !{null, metadata !188, metadata !151, metadata !151}
!465 = metadata !{i32 786478, i32 0, metadata !283, metadata !"_S_compare", metadata !"_S_compare", metadata !"_ZNSs10_S_compareEyy", metadata !287, i32 392, metadata !466, i1 false, i1 false, i32 0, i32 0, null, i32 257, i1 false, null, null, i32 0, metadata !87, i32 392} ; [ DW_TAG_subprogram ]
!466 = metadata !{i32 786453, i32 0, metadata !"", i32 0, i32 0, i64 0, i64 0, i64 0, i32 0, null, metadata !467, i32 0, i32 0} ; [ DW_TAG_subroutine_type ]
!467 = metadata !{metadata !56, metadata !378, metadata !378}
!468 = metadata !{i32 786478, i32 0, metadata !283, metadata !"_M_mutate", metadata !"_M_mutate", metadata !"_ZNSs9_M_mutateEyyy", metadata !287, i32 405, metadata !469, i1 false, i1 false, i32 0, i32 0, null, i32 257, i1 false, null, null, i32 0, metadata !87, i32 405} ; [ DW_TAG_subprogram ]
!469 = metadata !{i32 786453, i32 0, metadata !"", i32 0, i32 0, i64 0, i64 0, i64 0, i32 0, null, metadata !470, i32 0, i32 0} ; [ DW_TAG_subroutine_type ]
!470 = metadata !{null, metadata !367, metadata !378, metadata !378, metadata !378}
!471 = metadata !{i32 786478, i32 0, metadata !283, metadata !"_M_leak_hard", metadata !"_M_leak_hard", metadata !"_ZNSs12_M_leak_hardEv", metadata !287, i32 408, metadata !428, i1 false, i1 false, i32 0, i32 0, null, i32 257, i1 false, null, null, i32 0, metadata !87, i32 408} ; [ DW_TAG_subprogram ]
!472 = metadata !{i32 786478, i32 0, metadata !283, metadata !"_S_empty_rep", metadata !"_S_empty_rep", metadata !"_ZNSs12_S_empty_repEv", metadata !287, i32 411, metadata !383, i1 false, i1 false, i32 0, i32 0, null, i32 257, i1 false, null, null, i32 0, metadata !87, i32 411} ; [ DW_TAG_subprogram ]
!473 = metadata !{i32 786478, i32 0, metadata !283, metadata !"basic_string", metadata !"basic_string", metadata !"", metadata !287, i32 422, metadata !428, i1 false, i1 false, i32 0, i32 0, null, i32 256, i1 false, null, null, i32 0, metadata !87, i32 422} ; [ DW_TAG_subprogram ]
!474 = metadata !{i32 786478, i32 0, metadata !283, metadata !"basic_string", metadata !"basic_string", metadata !"", metadata !287, i32 433, metadata !475, i1 false, i1 false, i32 0, i32 0, null, i32 384, i1 false, null, null, i32 0, metadata !87, i32 433} ; [ DW_TAG_subprogram ]
!475 = metadata !{i32 786453, i32 0, metadata !"", i32 0, i32 0, i64 0, i64 0, i64 0, i32 0, null, metadata !476, i32 0, i32 0} ; [ DW_TAG_subroutine_type ]
!476 = metadata !{null, metadata !367, metadata !349}
!477 = metadata !{i32 786478, i32 0, metadata !283, metadata !"basic_string", metadata !"basic_string", metadata !"", metadata !287, i32 440, metadata !478, i1 false, i1 false, i32 0, i32 0, null, i32 256, i1 false, null, null, i32 0, metadata !87, i32 440} ; [ DW_TAG_subprogram ]
!478 = metadata !{i32 786453, i32 0, metadata !"", i32 0, i32 0, i64 0, i64 0, i64 0, i32 0, null, metadata !479, i32 0, i32 0} ; [ DW_TAG_subroutine_type ]
!479 = metadata !{null, metadata !367, metadata !480}
!480 = metadata !{i32 786448, null, null, null, i32 0, i64 0, i64 0, i64 0, i32 0, metadata !363} ; [ DW_TAG_reference_type ]
!481 = metadata !{i32 786478, i32 0, metadata !283, metadata !"basic_string", metadata !"basic_string", metadata !"", metadata !287, i32 447, metadata !482, i1 false, i1 false, i32 0, i32 0, null, i32 256, i1 false, null, null, i32 0, metadata !87, i32 447} ; [ DW_TAG_subprogram ]
!482 = metadata !{i32 786453, i32 0, metadata !"", i32 0, i32 0, i64 0, i64 0, i64 0, i32 0, null, metadata !483, i32 0, i32 0} ; [ DW_TAG_subroutine_type ]
!483 = metadata !{null, metadata !367, metadata !480, metadata !378, metadata !378}
!484 = metadata !{i32 786478, i32 0, metadata !283, metadata !"basic_string", metadata !"basic_string", metadata !"", metadata !287, i32 456, metadata !485, i1 false, i1 false, i32 0, i32 0, null, i32 256, i1 false, null, null, i32 0, metadata !87, i32 456} ; [ DW_TAG_subprogram ]
!485 = metadata !{i32 786453, i32 0, metadata !"", i32 0, i32 0, i64 0, i64 0, i64 0, i32 0, null, metadata !486, i32 0, i32 0} ; [ DW_TAG_subroutine_type ]
!486 = metadata !{null, metadata !367, metadata !480, metadata !378, metadata !378, metadata !349}
!487 = metadata !{i32 786478, i32 0, metadata !283, metadata !"basic_string", metadata !"basic_string", metadata !"", metadata !287, i32 468, metadata !488, i1 false, i1 false, i32 0, i32 0, null, i32 256, i1 false, null, null, i32 0, metadata !87, i32 468} ; [ DW_TAG_subprogram ]
!488 = metadata !{i32 786453, i32 0, metadata !"", i32 0, i32 0, i64 0, i64 0, i64 0, i32 0, null, metadata !489, i32 0, i32 0} ; [ DW_TAG_subroutine_type ]
!489 = metadata !{null, metadata !367, metadata !151, metadata !378, metadata !349}
!490 = metadata !{i32 786478, i32 0, metadata !283, metadata !"basic_string", metadata !"basic_string", metadata !"", metadata !287, i32 475, metadata !491, i1 false, i1 false, i32 0, i32 0, null, i32 256, i1 false, null, null, i32 0, metadata !87, i32 475} ; [ DW_TAG_subprogram ]
!491 = metadata !{i32 786453, i32 0, metadata !"", i32 0, i32 0, i64 0, i64 0, i64 0, i32 0, null, metadata !492, i32 0, i32 0} ; [ DW_TAG_subroutine_type ]
!492 = metadata !{null, metadata !367, metadata !151, metadata !349}
!493 = metadata !{i32 786478, i32 0, metadata !283, metadata !"basic_string", metadata !"basic_string", metadata !"", metadata !287, i32 482, metadata !494, i1 false, i1 false, i32 0, i32 0, null, i32 256, i1 false, null, null, i32 0, metadata !87, i32 482} ; [ DW_TAG_subprogram ]
!494 = metadata !{i32 786453, i32 0, metadata !"", i32 0, i32 0, i64 0, i64 0, i64 0, i32 0, null, metadata !495, i32 0, i32 0} ; [ DW_TAG_subroutine_type ]
!495 = metadata !{null, metadata !367, metadata !378, metadata !153, metadata !349}
!496 = metadata !{i32 786478, i32 0, metadata !283, metadata !"~basic_string", metadata !"~basic_string", metadata !"", metadata !287, i32 523, metadata !428, i1 false, i1 false, i32 0, i32 0, null, i32 256, i1 false, null, null, i32 0, metadata !87, i32 523} ; [ DW_TAG_subprogram ]
!497 = metadata !{i32 786478, i32 0, metadata !283, metadata !"operator=", metadata !"operator=", metadata !"_ZNSsaSERKSs", metadata !287, i32 531, metadata !498, i1 false, i1 false, i32 0, i32 0, null, i32 256, i1 false, null, null, i32 0, metadata !87, i32 531} ; [ DW_TAG_subprogram ]
!498 = metadata !{i32 786453, i32 0, metadata !"", i32 0, i32 0, i64 0, i64 0, i64 0, i32 0, null, metadata !499, i32 0, i32 0} ; [ DW_TAG_subroutine_type ]
!499 = metadata !{metadata !500, metadata !367, metadata !480}
!500 = metadata !{i32 786448, null, null, null, i32 0, i64 0, i64 0, i64 0, i32 0, metadata !283} ; [ DW_TAG_reference_type ]
!501 = metadata !{i32 786478, i32 0, metadata !283, metadata !"operator=", metadata !"operator=", metadata !"_ZNSsaSEPKc", metadata !287, i32 539, metadata !502, i1 false, i1 false, i32 0, i32 0, null, i32 256, i1 false, null, null, i32 0, metadata !87, i32 539} ; [ DW_TAG_subprogram ]
!502 = metadata !{i32 786453, i32 0, metadata !"", i32 0, i32 0, i64 0, i64 0, i64 0, i32 0, null, metadata !503, i32 0, i32 0} ; [ DW_TAG_subroutine_type ]
!503 = metadata !{metadata !500, metadata !367, metadata !151}
!504 = metadata !{i32 786478, i32 0, metadata !283, metadata !"operator=", metadata !"operator=", metadata !"_ZNSsaSEc", metadata !287, i32 550, metadata !505, i1 false, i1 false, i32 0, i32 0, null, i32 256, i1 false, null, null, i32 0, metadata !87, i32 550} ; [ DW_TAG_subprogram ]
!505 = metadata !{i32 786453, i32 0, metadata !"", i32 0, i32 0, i64 0, i64 0, i64 0, i32 0, null, metadata !506, i32 0, i32 0} ; [ DW_TAG_subroutine_type ]
!506 = metadata !{metadata !500, metadata !367, metadata !153}
!507 = metadata !{i32 786478, i32 0, metadata !283, metadata !"begin", metadata !"begin", metadata !"_ZNSs5beginEv", metadata !287, i32 590, metadata !508, i1 false, i1 false, i32 0, i32 0, null, i32 256, i1 false, null, null, i32 0, metadata !87, i32 590} ; [ DW_TAG_subprogram ]
!508 = metadata !{i32 786453, i32 0, metadata !"", i32 0, i32 0, i64 0, i64 0, i64 0, i32 0, null, metadata !509, i32 0, i32 0} ; [ DW_TAG_subroutine_type ]
!509 = metadata !{metadata !420, metadata !367}
!510 = metadata !{i32 786478, i32 0, metadata !283, metadata !"begin", metadata !"begin", metadata !"_ZNKSs5beginEv", metadata !287, i32 601, metadata !511, i1 false, i1 false, i32 0, i32 0, null, i32 256, i1 false, null, null, i32 0, metadata !87, i32 601} ; [ DW_TAG_subprogram ]
!511 = metadata !{i32 786453, i32 0, metadata !"", i32 0, i32 0, i64 0, i64 0, i64 0, i32 0, null, metadata !512, i32 0, i32 0} ; [ DW_TAG_subroutine_type ]
!512 = metadata !{metadata !455, metadata !362}
!513 = metadata !{i32 786478, i32 0, metadata !283, metadata !"end", metadata !"end", metadata !"_ZNSs3endEv", metadata !287, i32 609, metadata !508, i1 false, i1 false, i32 0, i32 0, null, i32 256, i1 false, null, null, i32 0, metadata !87, i32 609} ; [ DW_TAG_subprogram ]
!514 = metadata !{i32 786478, i32 0, metadata !283, metadata !"end", metadata !"end", metadata !"_ZNKSs3endEv", metadata !287, i32 620, metadata !511, i1 false, i1 false, i32 0, i32 0, null, i32 256, i1 false, null, null, i32 0, metadata !87, i32 620} ; [ DW_TAG_subprogram ]
!515 = metadata !{i32 786478, i32 0, metadata !283, metadata !"rbegin", metadata !"rbegin", metadata !"_ZNSs6rbeginEv", metadata !287, i32 629, metadata !516, i1 false, i1 false, i32 0, i32 0, null, i32 256, i1 false, null, null, i32 0, metadata !87, i32 629} ; [ DW_TAG_subprogram ]
!516 = metadata !{i32 786453, i32 0, metadata !"", i32 0, i32 0, i64 0, i64 0, i64 0, i32 0, null, metadata !517, i32 0, i32 0} ; [ DW_TAG_subroutine_type ]
!517 = metadata !{metadata !518, metadata !367}
!518 = metadata !{i32 786454, metadata !283, metadata !"reverse_iterator", metadata !284, i32 123, i64 0, i64 0, i64 0, i32 0, metadata !519} ; [ DW_TAG_typedef ]
!519 = metadata !{i32 786434, null, metadata !"reverse_iterator<__gnu_cxx::__normal_iterator<char *, std::basic_string<char> > >", metadata !422, i32 95, i64 0, i64 0, i32 0, i32 4, null, null, i32 0, null, metadata !520} ; [ DW_TAG_class_type ]
!520 = metadata !{metadata !521}
!521 = metadata !{i32 786479, null, metadata !"_Iterator", metadata !421, null, i32 0, i32 0} ; [ DW_TAG_template_type_parameter ]
!522 = metadata !{i32 786478, i32 0, metadata !283, metadata !"rbegin", metadata !"rbegin", metadata !"_ZNKSs6rbeginEv", metadata !287, i32 638, metadata !523, i1 false, i1 false, i32 0, i32 0, null, i32 256, i1 false, null, null, i32 0, metadata !87, i32 638} ; [ DW_TAG_subprogram ]
!523 = metadata !{i32 786453, i32 0, metadata !"", i32 0, i32 0, i64 0, i64 0, i64 0, i32 0, null, metadata !524, i32 0, i32 0} ; [ DW_TAG_subroutine_type ]
!524 = metadata !{metadata !525, metadata !362}
!525 = metadata !{i32 786454, metadata !283, metadata !"const_reverse_iterator", metadata !284, i32 122, i64 0, i64 0, i64 0, i32 0, metadata !526} ; [ DW_TAG_typedef ]
!526 = metadata !{i32 786434, null, metadata !"reverse_iterator<__gnu_cxx::__normal_iterator<const char *, std::basic_string<char> > >", metadata !422, i32 95, i64 0, i64 0, i32 0, i32 4, null, null, i32 0, null, metadata !527} ; [ DW_TAG_class_type ]
!527 = metadata !{metadata !528}
!528 = metadata !{i32 786479, null, metadata !"_Iterator", metadata !456, null, i32 0, i32 0} ; [ DW_TAG_template_type_parameter ]
!529 = metadata !{i32 786478, i32 0, metadata !283, metadata !"rend", metadata !"rend", metadata !"_ZNSs4rendEv", metadata !287, i32 647, metadata !516, i1 false, i1 false, i32 0, i32 0, null, i32 256, i1 false, null, null, i32 0, metadata !87, i32 647} ; [ DW_TAG_subprogram ]
!530 = metadata !{i32 786478, i32 0, metadata !283, metadata !"rend", metadata !"rend", metadata !"_ZNKSs4rendEv", metadata !287, i32 656, metadata !523, i1 false, i1 false, i32 0, i32 0, null, i32 256, i1 false, null, null, i32 0, metadata !87, i32 656} ; [ DW_TAG_subprogram ]
!531 = metadata !{i32 786478, i32 0, metadata !283, metadata !"size", metadata !"size", metadata !"_ZNKSs4sizeEv", metadata !287, i32 700, metadata !532, i1 false, i1 false, i32 0, i32 0, null, i32 256, i1 false, null, null, i32 0, metadata !87, i32 700} ; [ DW_TAG_subprogram ]
!532 = metadata !{i32 786453, i32 0, metadata !"", i32 0, i32 0, i64 0, i64 0, i64 0, i32 0, null, metadata !533, i32 0, i32 0} ; [ DW_TAG_subroutine_type ]
!533 = metadata !{metadata !378, metadata !362}
!534 = metadata !{i32 786478, i32 0, metadata !283, metadata !"length", metadata !"length", metadata !"_ZNKSs6lengthEv", metadata !287, i32 706, metadata !532, i1 false, i1 false, i32 0, i32 0, null, i32 256, i1 false, null, null, i32 0, metadata !87, i32 706} ; [ DW_TAG_subprogram ]
!535 = metadata !{i32 786478, i32 0, metadata !283, metadata !"max_size", metadata !"max_size", metadata !"_ZNKSs8max_sizeEv", metadata !287, i32 711, metadata !532, i1 false, i1 false, i32 0, i32 0, null, i32 256, i1 false, null, null, i32 0, metadata !87, i32 711} ; [ DW_TAG_subprogram ]
!536 = metadata !{i32 786478, i32 0, metadata !283, metadata !"resize", metadata !"resize", metadata !"_ZNSs6resizeEyc", metadata !287, i32 725, metadata !537, i1 false, i1 false, i32 0, i32 0, null, i32 256, i1 false, null, null, i32 0, metadata !87, i32 725} ; [ DW_TAG_subprogram ]
!537 = metadata !{i32 786453, i32 0, metadata !"", i32 0, i32 0, i64 0, i64 0, i64 0, i32 0, null, metadata !538, i32 0, i32 0} ; [ DW_TAG_subroutine_type ]
!538 = metadata !{null, metadata !367, metadata !378, metadata !153}
!539 = metadata !{i32 786478, i32 0, metadata !283, metadata !"resize", metadata !"resize", metadata !"_ZNSs6resizeEy", metadata !287, i32 738, metadata !540, i1 false, i1 false, i32 0, i32 0, null, i32 256, i1 false, null, null, i32 0, metadata !87, i32 738} ; [ DW_TAG_subprogram ]
!540 = metadata !{i32 786453, i32 0, metadata !"", i32 0, i32 0, i64 0, i64 0, i64 0, i32 0, null, metadata !541, i32 0, i32 0} ; [ DW_TAG_subroutine_type ]
!541 = metadata !{null, metadata !367, metadata !378}
!542 = metadata !{i32 786478, i32 0, metadata !283, metadata !"capacity", metadata !"capacity", metadata !"_ZNKSs8capacityEv", metadata !287, i32 758, metadata !532, i1 false, i1 false, i32 0, i32 0, null, i32 256, i1 false, null, null, i32 0, metadata !87, i32 758} ; [ DW_TAG_subprogram ]
!543 = metadata !{i32 786478, i32 0, metadata !283, metadata !"reserve", metadata !"reserve", metadata !"_ZNSs7reserveEy", metadata !287, i32 779, metadata !540, i1 false, i1 false, i32 0, i32 0, null, i32 256, i1 false, null, null, i32 0, metadata !87, i32 779} ; [ DW_TAG_subprogram ]
!544 = metadata !{i32 786478, i32 0, metadata !283, metadata !"clear", metadata !"clear", metadata !"_ZNSs5clearEv", metadata !287, i32 785, metadata !428, i1 false, i1 false, i32 0, i32 0, null, i32 256, i1 false, null, null, i32 0, metadata !87, i32 785} ; [ DW_TAG_subprogram ]
!545 = metadata !{i32 786478, i32 0, metadata !283, metadata !"empty", metadata !"empty", metadata !"_ZNKSs5emptyEv", metadata !287, i32 793, metadata !546, i1 false, i1 false, i32 0, i32 0, null, i32 256, i1 false, null, null, i32 0, metadata !87, i32 793} ; [ DW_TAG_subprogram ]
!546 = metadata !{i32 786453, i32 0, metadata !"", i32 0, i32 0, i64 0, i64 0, i64 0, i32 0, null, metadata !547, i32 0, i32 0} ; [ DW_TAG_subroutine_type ]
!547 = metadata !{metadata !213, metadata !362}
!548 = metadata !{i32 786478, i32 0, metadata !283, metadata !"operator[]", metadata !"operator[]", metadata !"_ZNKSsixEy", metadata !287, i32 808, metadata !549, i1 false, i1 false, i32 0, i32 0, null, i32 256, i1 false, null, null, i32 0, metadata !87, i32 808} ; [ DW_TAG_subprogram ]
!549 = metadata !{i32 786453, i32 0, metadata !"", i32 0, i32 0, i64 0, i64 0, i64 0, i32 0, null, metadata !550, i32 0, i32 0} ; [ DW_TAG_subroutine_type ]
!550 = metadata !{metadata !551, metadata !362, metadata !378}
!551 = metadata !{i32 786454, metadata !283, metadata !"const_reference", metadata !284, i32 116, i64 0, i64 0, i64 0, i32 0, metadata !552} ; [ DW_TAG_typedef ]
!552 = metadata !{i32 786454, metadata !291, metadata !"const_reference", metadata !284, i32 94, i64 0, i64 0, i64 0, i32 0, metadata !321} ; [ DW_TAG_typedef ]
!553 = metadata !{i32 786478, i32 0, metadata !283, metadata !"operator[]", metadata !"operator[]", metadata !"_ZNSsixEy", metadata !287, i32 825, metadata !554, i1 false, i1 false, i32 0, i32 0, null, i32 256, i1 false, null, null, i32 0, metadata !87, i32 825} ; [ DW_TAG_subprogram ]
!554 = metadata !{i32 786453, i32 0, metadata !"", i32 0, i32 0, i64 0, i64 0, i64 0, i32 0, null, metadata !555, i32 0, i32 0} ; [ DW_TAG_subroutine_type ]
!555 = metadata !{metadata !556, metadata !367, metadata !378}
!556 = metadata !{i32 786454, metadata !283, metadata !"reference", metadata !284, i32 115, i64 0, i64 0, i64 0, i32 0, metadata !557} ; [ DW_TAG_typedef ]
!557 = metadata !{i32 786454, metadata !291, metadata !"reference", metadata !284, i32 93, i64 0, i64 0, i64 0, i32 0, metadata !315} ; [ DW_TAG_typedef ]
!558 = metadata !{i32 786478, i32 0, metadata !283, metadata !"at", metadata !"at", metadata !"_ZNKSs2atEy", metadata !287, i32 846, metadata !549, i1 false, i1 false, i32 0, i32 0, null, i32 256, i1 false, null, null, i32 0, metadata !87, i32 846} ; [ DW_TAG_subprogram ]
!559 = metadata !{i32 786478, i32 0, metadata !283, metadata !"at", metadata !"at", metadata !"_ZNSs2atEy", metadata !287, i32 865, metadata !554, i1 false, i1 false, i32 0, i32 0, null, i32 256, i1 false, null, null, i32 0, metadata !87, i32 865} ; [ DW_TAG_subprogram ]
!560 = metadata !{i32 786478, i32 0, metadata !283, metadata !"operator+=", metadata !"operator+=", metadata !"_ZNSspLERKSs", metadata !287, i32 880, metadata !498, i1 false, i1 false, i32 0, i32 0, null, i32 256, i1 false, null, null, i32 0, metadata !87, i32 880} ; [ DW_TAG_subprogram ]
!561 = metadata !{i32 786478, i32 0, metadata !283, metadata !"operator+=", metadata !"operator+=", metadata !"_ZNSspLEPKc", metadata !287, i32 889, metadata !502, i1 false, i1 false, i32 0, i32 0, null, i32 256, i1 false, null, null, i32 0, metadata !87, i32 889} ; [ DW_TAG_subprogram ]
!562 = metadata !{i32 786478, i32 0, metadata !283, metadata !"operator+=", metadata !"operator+=", metadata !"_ZNSspLEc", metadata !287, i32 898, metadata !505, i1 false, i1 false, i32 0, i32 0, null, i32 256, i1 false, null, null, i32 0, metadata !87, i32 898} ; [ DW_TAG_subprogram ]
!563 = metadata !{i32 786478, i32 0, metadata !283, metadata !"append", metadata !"append", metadata !"_ZNSs6appendERKSs", metadata !287, i32 921, metadata !498, i1 false, i1 false, i32 0, i32 0, null, i32 256, i1 false, null, null, i32 0, metadata !87, i32 921} ; [ DW_TAG_subprogram ]
!564 = metadata !{i32 786478, i32 0, metadata !283, metadata !"append", metadata !"append", metadata !"_ZNSs6appendERKSsyy", metadata !287, i32 936, metadata !565, i1 false, i1 false, i32 0, i32 0, null, i32 256, i1 false, null, null, i32 0, metadata !87, i32 936} ; [ DW_TAG_subprogram ]
!565 = metadata !{i32 786453, i32 0, metadata !"", i32 0, i32 0, i64 0, i64 0, i64 0, i32 0, null, metadata !566, i32 0, i32 0} ; [ DW_TAG_subroutine_type ]
!566 = metadata !{metadata !500, metadata !367, metadata !480, metadata !378, metadata !378}
!567 = metadata !{i32 786478, i32 0, metadata !283, metadata !"append", metadata !"append", metadata !"_ZNSs6appendEPKcy", metadata !287, i32 945, metadata !568, i1 false, i1 false, i32 0, i32 0, null, i32 256, i1 false, null, null, i32 0, metadata !87, i32 945} ; [ DW_TAG_subprogram ]
!568 = metadata !{i32 786453, i32 0, metadata !"", i32 0, i32 0, i64 0, i64 0, i64 0, i32 0, null, metadata !569, i32 0, i32 0} ; [ DW_TAG_subroutine_type ]
!569 = metadata !{metadata !500, metadata !367, metadata !151, metadata !378}
!570 = metadata !{i32 786478, i32 0, metadata !283, metadata !"append", metadata !"append", metadata !"_ZNSs6appendEPKc", metadata !287, i32 953, metadata !502, i1 false, i1 false, i32 0, i32 0, null, i32 256, i1 false, null, null, i32 0, metadata !87, i32 953} ; [ DW_TAG_subprogram ]
!571 = metadata !{i32 786478, i32 0, metadata !283, metadata !"append", metadata !"append", metadata !"_ZNSs6appendEyc", metadata !287, i32 968, metadata !572, i1 false, i1 false, i32 0, i32 0, null, i32 256, i1 false, null, null, i32 0, metadata !87, i32 968} ; [ DW_TAG_subprogram ]
!572 = metadata !{i32 786453, i32 0, metadata !"", i32 0, i32 0, i64 0, i64 0, i64 0, i32 0, null, metadata !573, i32 0, i32 0} ; [ DW_TAG_subroutine_type ]
!573 = metadata !{metadata !500, metadata !367, metadata !378, metadata !153}
!574 = metadata !{i32 786478, i32 0, metadata !283, metadata !"push_back", metadata !"push_back", metadata !"_ZNSs9push_backEc", metadata !287, i32 999, metadata !575, i1 false, i1 false, i32 0, i32 0, null, i32 256, i1 false, null, null, i32 0, metadata !87, i32 999} ; [ DW_TAG_subprogram ]
!575 = metadata !{i32 786453, i32 0, metadata !"", i32 0, i32 0, i64 0, i64 0, i64 0, i32 0, null, metadata !576, i32 0, i32 0} ; [ DW_TAG_subroutine_type ]
!576 = metadata !{null, metadata !367, metadata !153}
!577 = metadata !{i32 786478, i32 0, metadata !283, metadata !"assign", metadata !"assign", metadata !"_ZNSs6assignERKSs", metadata !287, i32 1014, metadata !498, i1 false, i1 false, i32 0, i32 0, null, i32 256, i1 false, null, null, i32 0, metadata !87, i32 1014} ; [ DW_TAG_subprogram ]
!578 = metadata !{i32 786478, i32 0, metadata !283, metadata !"assign", metadata !"assign", metadata !"_ZNSs6assignERKSsyy", metadata !287, i32 1046, metadata !565, i1 false, i1 false, i32 0, i32 0, null, i32 256, i1 false, null, null, i32 0, metadata !87, i32 1046} ; [ DW_TAG_subprogram ]
!579 = metadata !{i32 786478, i32 0, metadata !283, metadata !"assign", metadata !"assign", metadata !"_ZNSs6assignEPKcy", metadata !287, i32 1062, metadata !568, i1 false, i1 false, i32 0, i32 0, null, i32 256, i1 false, null, null, i32 0, metadata !87, i32 1062} ; [ DW_TAG_subprogram ]
!580 = metadata !{i32 786478, i32 0, metadata !283, metadata !"assign", metadata !"assign", metadata !"_ZNSs6assignEPKc", metadata !287, i32 1074, metadata !502, i1 false, i1 false, i32 0, i32 0, null, i32 256, i1 false, null, null, i32 0, metadata !87, i32 1074} ; [ DW_TAG_subprogram ]
!581 = metadata !{i32 786478, i32 0, metadata !283, metadata !"assign", metadata !"assign", metadata !"_ZNSs6assignEyc", metadata !287, i32 1090, metadata !572, i1 false, i1 false, i32 0, i32 0, null, i32 256, i1 false, null, null, i32 0, metadata !87, i32 1090} ; [ DW_TAG_subprogram ]
!582 = metadata !{i32 786478, i32 0, metadata !283, metadata !"insert", metadata !"insert", metadata !"_ZNSs6insertEN9__gnu_cxx17__normal_iteratorIPcSsEEyc", metadata !287, i32 1130, metadata !583, i1 false, i1 false, i32 0, i32 0, null, i32 256, i1 false, null, null, i32 0, metadata !87, i32 1130} ; [ DW_TAG_subprogram ]
!583 = metadata !{i32 786453, i32 0, metadata !"", i32 0, i32 0, i64 0, i64 0, i64 0, i32 0, null, metadata !584, i32 0, i32 0} ; [ DW_TAG_subroutine_type ]
!584 = metadata !{null, metadata !367, metadata !420, metadata !378, metadata !153}
!585 = metadata !{i32 786478, i32 0, metadata !283, metadata !"insert", metadata !"insert", metadata !"_ZNSs6insertEyRKSs", metadata !287, i32 1176, metadata !586, i1 false, i1 false, i32 0, i32 0, null, i32 256, i1 false, null, null, i32 0, metadata !87, i32 1176} ; [ DW_TAG_subprogram ]
!586 = metadata !{i32 786453, i32 0, metadata !"", i32 0, i32 0, i64 0, i64 0, i64 0, i32 0, null, metadata !587, i32 0, i32 0} ; [ DW_TAG_subroutine_type ]
!587 = metadata !{metadata !500, metadata !367, metadata !378, metadata !480}
!588 = metadata !{i32 786478, i32 0, metadata !283, metadata !"insert", metadata !"insert", metadata !"_ZNSs6insertEyRKSsyy", metadata !287, i32 1198, metadata !589, i1 false, i1 false, i32 0, i32 0, null, i32 256, i1 false, null, null, i32 0, metadata !87, i32 1198} ; [ DW_TAG_subprogram ]
!589 = metadata !{i32 786453, i32 0, metadata !"", i32 0, i32 0, i64 0, i64 0, i64 0, i32 0, null, metadata !590, i32 0, i32 0} ; [ DW_TAG_subroutine_type ]
!590 = metadata !{metadata !500, metadata !367, metadata !378, metadata !480, metadata !378, metadata !378}
!591 = metadata !{i32 786478, i32 0, metadata !283, metadata !"insert", metadata !"insert", metadata !"_ZNSs6insertEyPKcy", metadata !287, i32 1221, metadata !592, i1 false, i1 false, i32 0, i32 0, null, i32 256, i1 false, null, null, i32 0, metadata !87, i32 1221} ; [ DW_TAG_subprogram ]
!592 = metadata !{i32 786453, i32 0, metadata !"", i32 0, i32 0, i64 0, i64 0, i64 0, i32 0, null, metadata !593, i32 0, i32 0} ; [ DW_TAG_subroutine_type ]
!593 = metadata !{metadata !500, metadata !367, metadata !378, metadata !151, metadata !378}
!594 = metadata !{i32 786478, i32 0, metadata !283, metadata !"insert", metadata !"insert", metadata !"_ZNSs6insertEyPKc", metadata !287, i32 1239, metadata !595, i1 false, i1 false, i32 0, i32 0, null, i32 256, i1 false, null, null, i32 0, metadata !87, i32 1239} ; [ DW_TAG_subprogram ]
!595 = metadata !{i32 786453, i32 0, metadata !"", i32 0, i32 0, i64 0, i64 0, i64 0, i32 0, null, metadata !596, i32 0, i32 0} ; [ DW_TAG_subroutine_type ]
!596 = metadata !{metadata !500, metadata !367, metadata !378, metadata !151}
!597 = metadata !{i32 786478, i32 0, metadata !283, metadata !"insert", metadata !"insert", metadata !"_ZNSs6insertEyyc", metadata !287, i32 1262, metadata !598, i1 false, i1 false, i32 0, i32 0, null, i32 256, i1 false, null, null, i32 0, metadata !87, i32 1262} ; [ DW_TAG_subprogram ]
!598 = metadata !{i32 786453, i32 0, metadata !"", i32 0, i32 0, i64 0, i64 0, i64 0, i32 0, null, metadata !599, i32 0, i32 0} ; [ DW_TAG_subroutine_type ]
!599 = metadata !{metadata !500, metadata !367, metadata !378, metadata !378, metadata !153}
!600 = metadata !{i32 786478, i32 0, metadata !283, metadata !"insert", metadata !"insert", metadata !"_ZNSs6insertEN9__gnu_cxx17__normal_iteratorIPcSsEEc", metadata !287, i32 1279, metadata !601, i1 false, i1 false, i32 0, i32 0, null, i32 256, i1 false, null, null, i32 0, metadata !87, i32 1279} ; [ DW_TAG_subprogram ]
!601 = metadata !{i32 786453, i32 0, metadata !"", i32 0, i32 0, i64 0, i64 0, i64 0, i32 0, null, metadata !602, i32 0, i32 0} ; [ DW_TAG_subroutine_type ]
!602 = metadata !{metadata !420, metadata !367, metadata !420, metadata !153}
!603 = metadata !{i32 786478, i32 0, metadata !283, metadata !"erase", metadata !"erase", metadata !"_ZNSs5eraseEyy", metadata !287, i32 1303, metadata !604, i1 false, i1 false, i32 0, i32 0, null, i32 256, i1 false, null, null, i32 0, metadata !87, i32 1303} ; [ DW_TAG_subprogram ]
!604 = metadata !{i32 786453, i32 0, metadata !"", i32 0, i32 0, i64 0, i64 0, i64 0, i32 0, null, metadata !605, i32 0, i32 0} ; [ DW_TAG_subroutine_type ]
!605 = metadata !{metadata !500, metadata !367, metadata !378, metadata !378}
!606 = metadata !{i32 786478, i32 0, metadata !283, metadata !"erase", metadata !"erase", metadata !"_ZNSs5eraseEN9__gnu_cxx17__normal_iteratorIPcSsEE", metadata !287, i32 1319, metadata !607, i1 false, i1 false, i32 0, i32 0, null, i32 256, i1 false, null, null, i32 0, metadata !87, i32 1319} ; [ DW_TAG_subprogram ]
!607 = metadata !{i32 786453, i32 0, metadata !"", i32 0, i32 0, i64 0, i64 0, i64 0, i32 0, null, metadata !608, i32 0, i32 0} ; [ DW_TAG_subroutine_type ]
!608 = metadata !{metadata !420, metadata !367, metadata !420}
!609 = metadata !{i32 786478, i32 0, metadata !283, metadata !"erase", metadata !"erase", metadata !"_ZNSs5eraseEN9__gnu_cxx17__normal_iteratorIPcSsEES2_", metadata !287, i32 1339, metadata !610, i1 false, i1 false, i32 0, i32 0, null, i32 256, i1 false, null, null, i32 0, metadata !87, i32 1339} ; [ DW_TAG_subprogram ]
!610 = metadata !{i32 786453, i32 0, metadata !"", i32 0, i32 0, i64 0, i64 0, i64 0, i32 0, null, metadata !611, i32 0, i32 0} ; [ DW_TAG_subroutine_type ]
!611 = metadata !{metadata !420, metadata !367, metadata !420, metadata !420}
!612 = metadata !{i32 786478, i32 0, metadata !283, metadata !"replace", metadata !"replace", metadata !"_ZNSs7replaceEyyRKSs", metadata !287, i32 1358, metadata !613, i1 false, i1 false, i32 0, i32 0, null, i32 256, i1 false, null, null, i32 0, metadata !87, i32 1358} ; [ DW_TAG_subprogram ]
!613 = metadata !{i32 786453, i32 0, metadata !"", i32 0, i32 0, i64 0, i64 0, i64 0, i32 0, null, metadata !614, i32 0, i32 0} ; [ DW_TAG_subroutine_type ]
!614 = metadata !{metadata !500, metadata !367, metadata !378, metadata !378, metadata !480}
!615 = metadata !{i32 786478, i32 0, metadata !283, metadata !"replace", metadata !"replace", metadata !"_ZNSs7replaceEyyRKSsyy", metadata !287, i32 1380, metadata !616, i1 false, i1 false, i32 0, i32 0, null, i32 256, i1 false, null, null, i32 0, metadata !87, i32 1380} ; [ DW_TAG_subprogram ]
!616 = metadata !{i32 786453, i32 0, metadata !"", i32 0, i32 0, i64 0, i64 0, i64 0, i32 0, null, metadata !617, i32 0, i32 0} ; [ DW_TAG_subroutine_type ]
!617 = metadata !{metadata !500, metadata !367, metadata !378, metadata !378, metadata !480, metadata !378, metadata !378}
!618 = metadata !{i32 786478, i32 0, metadata !283, metadata !"replace", metadata !"replace", metadata !"_ZNSs7replaceEyyPKcy", metadata !287, i32 1404, metadata !619, i1 false, i1 false, i32 0, i32 0, null, i32 256, i1 false, null, null, i32 0, metadata !87, i32 1404} ; [ DW_TAG_subprogram ]
!619 = metadata !{i32 786453, i32 0, metadata !"", i32 0, i32 0, i64 0, i64 0, i64 0, i32 0, null, metadata !620, i32 0, i32 0} ; [ DW_TAG_subroutine_type ]
!620 = metadata !{metadata !500, metadata !367, metadata !378, metadata !378, metadata !151, metadata !378}
!621 = metadata !{i32 786478, i32 0, metadata !283, metadata !"replace", metadata !"replace", metadata !"_ZNSs7replaceEyyPKc", metadata !287, i32 1423, metadata !622, i1 false, i1 false, i32 0, i32 0, null, i32 256, i1 false, null, null, i32 0, metadata !87, i32 1423} ; [ DW_TAG_subprogram ]
!622 = metadata !{i32 786453, i32 0, metadata !"", i32 0, i32 0, i64 0, i64 0, i64 0, i32 0, null, metadata !623, i32 0, i32 0} ; [ DW_TAG_subroutine_type ]
!623 = metadata !{metadata !500, metadata !367, metadata !378, metadata !378, metadata !151}
!624 = metadata !{i32 786478, i32 0, metadata !283, metadata !"replace", metadata !"replace", metadata !"_ZNSs7replaceEyyyc", metadata !287, i32 1446, metadata !625, i1 false, i1 false, i32 0, i32 0, null, i32 256, i1 false, null, null, i32 0, metadata !87, i32 1446} ; [ DW_TAG_subprogram ]
!625 = metadata !{i32 786453, i32 0, metadata !"", i32 0, i32 0, i64 0, i64 0, i64 0, i32 0, null, metadata !626, i32 0, i32 0} ; [ DW_TAG_subroutine_type ]
!626 = metadata !{metadata !500, metadata !367, metadata !378, metadata !378, metadata !378, metadata !153}
!627 = metadata !{i32 786478, i32 0, metadata !283, metadata !"replace", metadata !"replace", metadata !"_ZNSs7replaceEN9__gnu_cxx17__normal_iteratorIPcSsEES2_RKSs", metadata !287, i32 1464, metadata !628, i1 false, i1 false, i32 0, i32 0, null, i32 256, i1 false, null, null, i32 0, metadata !87, i32 1464} ; [ DW_TAG_subprogram ]
!628 = metadata !{i32 786453, i32 0, metadata !"", i32 0, i32 0, i64 0, i64 0, i64 0, i32 0, null, metadata !629, i32 0, i32 0} ; [ DW_TAG_subroutine_type ]
!629 = metadata !{metadata !500, metadata !367, metadata !420, metadata !420, metadata !480}
!630 = metadata !{i32 786478, i32 0, metadata !283, metadata !"replace", metadata !"replace", metadata !"_ZNSs7replaceEN9__gnu_cxx17__normal_iteratorIPcSsEES2_PKcy", metadata !287, i32 1482, metadata !631, i1 false, i1 false, i32 0, i32 0, null, i32 256, i1 false, null, null, i32 0, metadata !87, i32 1482} ; [ DW_TAG_subprogram ]
!631 = metadata !{i32 786453, i32 0, metadata !"", i32 0, i32 0, i64 0, i64 0, i64 0, i32 0, null, metadata !632, i32 0, i32 0} ; [ DW_TAG_subroutine_type ]
!632 = metadata !{metadata !500, metadata !367, metadata !420, metadata !420, metadata !151, metadata !378}
!633 = metadata !{i32 786478, i32 0, metadata !283, metadata !"replace", metadata !"replace", metadata !"_ZNSs7replaceEN9__gnu_cxx17__normal_iteratorIPcSsEES2_PKc", metadata !287, i32 1503, metadata !634, i1 false, i1 false, i32 0, i32 0, null, i32 256, i1 false, null, null, i32 0, metadata !87, i32 1503} ; [ DW_TAG_subprogram ]
!634 = metadata !{i32 786453, i32 0, metadata !"", i32 0, i32 0, i64 0, i64 0, i64 0, i32 0, null, metadata !635, i32 0, i32 0} ; [ DW_TAG_subroutine_type ]
!635 = metadata !{metadata !500, metadata !367, metadata !420, metadata !420, metadata !151}
!636 = metadata !{i32 786478, i32 0, metadata !283, metadata !"replace", metadata !"replace", metadata !"_ZNSs7replaceEN9__gnu_cxx17__normal_iteratorIPcSsEES2_yc", metadata !287, i32 1524, metadata !637, i1 false, i1 false, i32 0, i32 0, null, i32 256, i1 false, null, null, i32 0, metadata !87, i32 1524} ; [ DW_TAG_subprogram ]
!637 = metadata !{i32 786453, i32 0, metadata !"", i32 0, i32 0, i64 0, i64 0, i64 0, i32 0, null, metadata !638, i32 0, i32 0} ; [ DW_TAG_subroutine_type ]
!638 = metadata !{metadata !500, metadata !367, metadata !420, metadata !420, metadata !378, metadata !153}
!639 = metadata !{i32 786478, i32 0, metadata !283, metadata !"replace", metadata !"replace", metadata !"_ZNSs7replaceEN9__gnu_cxx17__normal_iteratorIPcSsEES2_S1_S1_", metadata !287, i32 1560, metadata !640, i1 false, i1 false, i32 0, i32 0, null, i32 256, i1 false, null, null, i32 0, metadata !87, i32 1560} ; [ DW_TAG_subprogram ]
!640 = metadata !{i32 786453, i32 0, metadata !"", i32 0, i32 0, i64 0, i64 0, i64 0, i32 0, null, metadata !641, i32 0, i32 0} ; [ DW_TAG_subroutine_type ]
!641 = metadata !{metadata !500, metadata !367, metadata !420, metadata !420, metadata !188, metadata !188}
!642 = metadata !{i32 786478, i32 0, metadata !283, metadata !"replace", metadata !"replace", metadata !"_ZNSs7replaceEN9__gnu_cxx17__normal_iteratorIPcSsEES2_PKcS4_", metadata !287, i32 1570, metadata !643, i1 false, i1 false, i32 0, i32 0, null, i32 256, i1 false, null, null, i32 0, metadata !87, i32 1570} ; [ DW_TAG_subprogram ]
!643 = metadata !{i32 786453, i32 0, metadata !"", i32 0, i32 0, i64 0, i64 0, i64 0, i32 0, null, metadata !644, i32 0, i32 0} ; [ DW_TAG_subroutine_type ]
!644 = metadata !{metadata !500, metadata !367, metadata !420, metadata !420, metadata !151, metadata !151}
!645 = metadata !{i32 786478, i32 0, metadata !283, metadata !"replace", metadata !"replace", metadata !"_ZNSs7replaceEN9__gnu_cxx17__normal_iteratorIPcSsEES2_S2_S2_", metadata !287, i32 1581, metadata !646, i1 false, i1 false, i32 0, i32 0, null, i32 256, i1 false, null, null, i32 0, metadata !87, i32 1581} ; [ DW_TAG_subprogram ]
!646 = metadata !{i32 786453, i32 0, metadata !"", i32 0, i32 0, i64 0, i64 0, i64 0, i32 0, null, metadata !647, i32 0, i32 0} ; [ DW_TAG_subroutine_type ]
!647 = metadata !{metadata !500, metadata !367, metadata !420, metadata !420, metadata !420, metadata !420}
!648 = metadata !{i32 786478, i32 0, metadata !283, metadata !"replace", metadata !"replace", metadata !"_ZNSs7replaceEN9__gnu_cxx17__normal_iteratorIPcSsEES2_NS0_IPKcSsEES5_", metadata !287, i32 1591, metadata !649, i1 false, i1 false, i32 0, i32 0, null, i32 256, i1 false, null, null, i32 0, metadata !87, i32 1591} ; [ DW_TAG_subprogram ]
!649 = metadata !{i32 786453, i32 0, metadata !"", i32 0, i32 0, i64 0, i64 0, i64 0, i32 0, null, metadata !650, i32 0, i32 0} ; [ DW_TAG_subroutine_type ]
!650 = metadata !{metadata !500, metadata !367, metadata !420, metadata !420, metadata !455, metadata !455}
!651 = metadata !{i32 786478, i32 0, metadata !283, metadata !"_M_replace_aux", metadata !"_M_replace_aux", metadata !"_ZNSs14_M_replace_auxEyyyc", metadata !287, i32 1633, metadata !625, i1 false, i1 false, i32 0, i32 0, null, i32 257, i1 false, null, null, i32 0, metadata !87, i32 1633} ; [ DW_TAG_subprogram ]
!652 = metadata !{i32 786478, i32 0, metadata !283, metadata !"_M_replace_safe", metadata !"_M_replace_safe", metadata !"_ZNSs15_M_replace_safeEyyPKcy", metadata !287, i32 1637, metadata !619, i1 false, i1 false, i32 0, i32 0, null, i32 257, i1 false, null, null, i32 0, metadata !87, i32 1637} ; [ DW_TAG_subprogram ]
!653 = metadata !{i32 786478, i32 0, metadata !283, metadata !"_S_construct_aux_2", metadata !"_S_construct_aux_2", metadata !"_ZNSs18_S_construct_aux_2EycRKSaIcE", metadata !287, i32 1661, metadata !654, i1 false, i1 false, i32 0, i32 0, null, i32 257, i1 false, null, null, i32 0, metadata !87, i32 1661} ; [ DW_TAG_subprogram ]
!654 = metadata !{i32 786453, i32 0, metadata !"", i32 0, i32 0, i64 0, i64 0, i64 0, i32 0, null, metadata !655, i32 0, i32 0} ; [ DW_TAG_subroutine_type ]
!655 = metadata !{metadata !188, metadata !378, metadata !153, metadata !349}
!656 = metadata !{i32 786478, i32 0, metadata !283, metadata !"_S_construct", metadata !"_S_construct", metadata !"_ZNSs12_S_constructEycRKSaIcE", metadata !287, i32 1686, metadata !654, i1 false, i1 false, i32 0, i32 0, null, i32 257, i1 false, null, null, i32 0, metadata !87, i32 1686} ; [ DW_TAG_subprogram ]
!657 = metadata !{i32 786478, i32 0, metadata !283, metadata !"copy", metadata !"copy", metadata !"_ZNKSs4copyEPcyy", metadata !287, i32 1702, metadata !658, i1 false, i1 false, i32 0, i32 0, null, i32 256, i1 false, null, null, i32 0, metadata !87, i32 1702} ; [ DW_TAG_subprogram ]
!658 = metadata !{i32 786453, i32 0, metadata !"", i32 0, i32 0, i64 0, i64 0, i64 0, i32 0, null, metadata !659, i32 0, i32 0} ; [ DW_TAG_subroutine_type ]
!659 = metadata !{metadata !378, metadata !362, metadata !188, metadata !378, metadata !378}
!660 = metadata !{i32 786478, i32 0, metadata !283, metadata !"swap", metadata !"swap", metadata !"_ZNSs4swapERSs", metadata !287, i32 1712, metadata !661, i1 false, i1 false, i32 0, i32 0, null, i32 256, i1 false, null, null, i32 0, metadata !87, i32 1712} ; [ DW_TAG_subprogram ]
!661 = metadata !{i32 786453, i32 0, metadata !"", i32 0, i32 0, i64 0, i64 0, i64 0, i32 0, null, metadata !662, i32 0, i32 0} ; [ DW_TAG_subroutine_type ]
!662 = metadata !{null, metadata !367, metadata !500}
!663 = metadata !{i32 786478, i32 0, metadata !283, metadata !"c_str", metadata !"c_str", metadata !"_ZNKSs5c_strEv", metadata !287, i32 1722, metadata !664, i1 false, i1 false, i32 0, i32 0, null, i32 256, i1 false, null, null, i32 0, metadata !87, i32 1722} ; [ DW_TAG_subprogram ]
!664 = metadata !{i32 786453, i32 0, metadata !"", i32 0, i32 0, i64 0, i64 0, i64 0, i32 0, null, metadata !665, i32 0, i32 0} ; [ DW_TAG_subroutine_type ]
!665 = metadata !{metadata !151, metadata !362}
!666 = metadata !{i32 786478, i32 0, metadata !283, metadata !"data", metadata !"data", metadata !"_ZNKSs4dataEv", metadata !287, i32 1732, metadata !664, i1 false, i1 false, i32 0, i32 0, null, i32 256, i1 false, null, null, i32 0, metadata !87, i32 1732} ; [ DW_TAG_subprogram ]
!667 = metadata !{i32 786478, i32 0, metadata !283, metadata !"get_allocator", metadata !"get_allocator", metadata !"_ZNKSs13get_allocatorEv", metadata !287, i32 1739, metadata !668, i1 false, i1 false, i32 0, i32 0, null, i32 256, i1 false, null, null, i32 0, metadata !87, i32 1739} ; [ DW_TAG_subprogram ]
!668 = metadata !{i32 786453, i32 0, metadata !"", i32 0, i32 0, i64 0, i64 0, i64 0, i32 0, null, metadata !669, i32 0, i32 0} ; [ DW_TAG_subroutine_type ]
!669 = metadata !{metadata !670, metadata !362}
!670 = metadata !{i32 786454, metadata !283, metadata !"allocator_type", metadata !284, i32 112, i64 0, i64 0, i64 0, i32 0, metadata !291} ; [ DW_TAG_typedef ]
!671 = metadata !{i32 786478, i32 0, metadata !283, metadata !"find", metadata !"find", metadata !"_ZNKSs4findEPKcyy", metadata !287, i32 1754, metadata !672, i1 false, i1 false, i32 0, i32 0, null, i32 256, i1 false, null, null, i32 0, metadata !87, i32 1754} ; [ DW_TAG_subprogram ]
!672 = metadata !{i32 786453, i32 0, metadata !"", i32 0, i32 0, i64 0, i64 0, i64 0, i32 0, null, metadata !673, i32 0, i32 0} ; [ DW_TAG_subroutine_type ]
!673 = metadata !{metadata !378, metadata !362, metadata !151, metadata !378, metadata !378}
!674 = metadata !{i32 786478, i32 0, metadata !283, metadata !"find", metadata !"find", metadata !"_ZNKSs4findERKSsy", metadata !287, i32 1767, metadata !675, i1 false, i1 false, i32 0, i32 0, null, i32 256, i1 false, null, null, i32 0, metadata !87, i32 1767} ; [ DW_TAG_subprogram ]
!675 = metadata !{i32 786453, i32 0, metadata !"", i32 0, i32 0, i64 0, i64 0, i64 0, i32 0, null, metadata !676, i32 0, i32 0} ; [ DW_TAG_subroutine_type ]
!676 = metadata !{metadata !378, metadata !362, metadata !480, metadata !378}
!677 = metadata !{i32 786478, i32 0, metadata !283, metadata !"find", metadata !"find", metadata !"_ZNKSs4findEPKcy", metadata !287, i32 1781, metadata !678, i1 false, i1 false, i32 0, i32 0, null, i32 256, i1 false, null, null, i32 0, metadata !87, i32 1781} ; [ DW_TAG_subprogram ]
!678 = metadata !{i32 786453, i32 0, metadata !"", i32 0, i32 0, i64 0, i64 0, i64 0, i32 0, null, metadata !679, i32 0, i32 0} ; [ DW_TAG_subroutine_type ]
!679 = metadata !{metadata !378, metadata !362, metadata !151, metadata !378}
!680 = metadata !{i32 786478, i32 0, metadata !283, metadata !"find", metadata !"find", metadata !"_ZNKSs4findEcy", metadata !287, i32 1798, metadata !681, i1 false, i1 false, i32 0, i32 0, null, i32 256, i1 false, null, null, i32 0, metadata !87, i32 1798} ; [ DW_TAG_subprogram ]
!681 = metadata !{i32 786453, i32 0, metadata !"", i32 0, i32 0, i64 0, i64 0, i64 0, i32 0, null, metadata !682, i32 0, i32 0} ; [ DW_TAG_subroutine_type ]
!682 = metadata !{metadata !378, metadata !362, metadata !153, metadata !378}
!683 = metadata !{i32 786478, i32 0, metadata !283, metadata !"rfind", metadata !"rfind", metadata !"_ZNKSs5rfindERKSsy", metadata !287, i32 1811, metadata !675, i1 false, i1 false, i32 0, i32 0, null, i32 256, i1 false, null, null, i32 0, metadata !87, i32 1811} ; [ DW_TAG_subprogram ]
!684 = metadata !{i32 786478, i32 0, metadata !283, metadata !"rfind", metadata !"rfind", metadata !"_ZNKSs5rfindEPKcyy", metadata !287, i32 1826, metadata !672, i1 false, i1 false, i32 0, i32 0, null, i32 256, i1 false, null, null, i32 0, metadata !87, i32 1826} ; [ DW_TAG_subprogram ]
!685 = metadata !{i32 786478, i32 0, metadata !283, metadata !"rfind", metadata !"rfind", metadata !"_ZNKSs5rfindEPKcy", metadata !287, i32 1839, metadata !678, i1 false, i1 false, i32 0, i32 0, null, i32 256, i1 false, null, null, i32 0, metadata !87, i32 1839} ; [ DW_TAG_subprogram ]
!686 = metadata !{i32 786478, i32 0, metadata !283, metadata !"rfind", metadata !"rfind", metadata !"_ZNKSs5rfindEcy", metadata !287, i32 1856, metadata !681, i1 false, i1 false, i32 0, i32 0, null, i32 256, i1 false, null, null, i32 0, metadata !87, i32 1856} ; [ DW_TAG_subprogram ]
!687 = metadata !{i32 786478, i32 0, metadata !283, metadata !"find_first_of", metadata !"find_first_of", metadata !"_ZNKSs13find_first_ofERKSsy", metadata !287, i32 1869, metadata !675, i1 false, i1 false, i32 0, i32 0, null, i32 256, i1 false, null, null, i32 0, metadata !87, i32 1869} ; [ DW_TAG_subprogram ]
!688 = metadata !{i32 786478, i32 0, metadata !283, metadata !"find_first_of", metadata !"find_first_of", metadata !"_ZNKSs13find_first_ofEPKcyy", metadata !287, i32 1884, metadata !672, i1 false, i1 false, i32 0, i32 0, null, i32 256, i1 false, null, null, i32 0, metadata !87, i32 1884} ; [ DW_TAG_subprogram ]
!689 = metadata !{i32 786478, i32 0, metadata !283, metadata !"find_first_of", metadata !"find_first_of", metadata !"_ZNKSs13find_first_ofEPKcy", metadata !287, i32 1897, metadata !678, i1 false, i1 false, i32 0, i32 0, null, i32 256, i1 false, null, null, i32 0, metadata !87, i32 1897} ; [ DW_TAG_subprogram ]
!690 = metadata !{i32 786478, i32 0, metadata !283, metadata !"find_first_of", metadata !"find_first_of", metadata !"_ZNKSs13find_first_ofEcy", metadata !287, i32 1916, metadata !681, i1 false, i1 false, i32 0, i32 0, null, i32 256, i1 false, null, null, i32 0, metadata !87, i32 1916} ; [ DW_TAG_subprogram ]
!691 = metadata !{i32 786478, i32 0, metadata !283, metadata !"find_last_of", metadata !"find_last_of", metadata !"_ZNKSs12find_last_ofERKSsy", metadata !287, i32 1930, metadata !675, i1 false, i1 false, i32 0, i32 0, null, i32 256, i1 false, null, null, i32 0, metadata !87, i32 1930} ; [ DW_TAG_subprogram ]
!692 = metadata !{i32 786478, i32 0, metadata !283, metadata !"find_last_of", metadata !"find_last_of", metadata !"_ZNKSs12find_last_ofEPKcyy", metadata !287, i32 1945, metadata !672, i1 false, i1 false, i32 0, i32 0, null, i32 256, i1 false, null, null, i32 0, metadata !87, i32 1945} ; [ DW_TAG_subprogram ]
!693 = metadata !{i32 786478, i32 0, metadata !283, metadata !"find_last_of", metadata !"find_last_of", metadata !"_ZNKSs12find_last_ofEPKcy", metadata !287, i32 1958, metadata !678, i1 false, i1 false, i32 0, i32 0, null, i32 256, i1 false, null, null, i32 0, metadata !87, i32 1958} ; [ DW_TAG_subprogram ]
!694 = metadata !{i32 786478, i32 0, metadata !283, metadata !"find_last_of", metadata !"find_last_of", metadata !"_ZNKSs12find_last_ofEcy", metadata !287, i32 1977, metadata !681, i1 false, i1 false, i32 0, i32 0, null, i32 256, i1 false, null, null, i32 0, metadata !87, i32 1977} ; [ DW_TAG_subprogram ]
!695 = metadata !{i32 786478, i32 0, metadata !283, metadata !"find_first_not_of", metadata !"find_first_not_of", metadata !"_ZNKSs17find_first_not_ofERKSsy", metadata !287, i32 1991, metadata !675, i1 false, i1 false, i32 0, i32 0, null, i32 256, i1 false, null, null, i32 0, metadata !87, i32 1991} ; [ DW_TAG_subprogram ]
!696 = metadata !{i32 786478, i32 0, metadata !283, metadata !"find_first_not_of", metadata !"find_first_not_of", metadata !"_ZNKSs17find_first_not_ofEPKcyy", metadata !287, i32 2006, metadata !672, i1 false, i1 false, i32 0, i32 0, null, i32 256, i1 false, null, null, i32 0, metadata !87, i32 2006} ; [ DW_TAG_subprogram ]
!697 = metadata !{i32 786478, i32 0, metadata !283, metadata !"find_first_not_of", metadata !"find_first_not_of", metadata !"_ZNKSs17find_first_not_ofEPKcy", metadata !287, i32 2020, metadata !678, i1 false, i1 false, i32 0, i32 0, null, i32 256, i1 false, null, null, i32 0, metadata !87, i32 2020} ; [ DW_TAG_subprogram ]
!698 = metadata !{i32 786478, i32 0, metadata !283, metadata !"find_first_not_of", metadata !"find_first_not_of", metadata !"_ZNKSs17find_first_not_ofEcy", metadata !287, i32 2037, metadata !681, i1 false, i1 false, i32 0, i32 0, null, i32 256, i1 false, null, null, i32 0, metadata !87, i32 2037} ; [ DW_TAG_subprogram ]
!699 = metadata !{i32 786478, i32 0, metadata !283, metadata !"find_last_not_of", metadata !"find_last_not_of", metadata !"_ZNKSs16find_last_not_ofERKSsy", metadata !287, i32 2050, metadata !675, i1 false, i1 false, i32 0, i32 0, null, i32 256, i1 false, null, null, i32 0, metadata !87, i32 2050} ; [ DW_TAG_subprogram ]
!700 = metadata !{i32 786478, i32 0, metadata !283, metadata !"find_last_not_of", metadata !"find_last_not_of", metadata !"_ZNKSs16find_last_not_ofEPKcyy", metadata !287, i32 2066, metadata !672, i1 false, i1 false, i32 0, i32 0, null, i32 256, i1 false, null, null, i32 0, metadata !87, i32 2066} ; [ DW_TAG_subprogram ]
!701 = metadata !{i32 786478, i32 0, metadata !283, metadata !"find_last_not_of", metadata !"find_last_not_of", metadata !"_ZNKSs16find_last_not_ofEPKcy", metadata !287, i32 2079, metadata !678, i1 false, i1 false, i32 0, i32 0, null, i32 256, i1 false, null, null, i32 0, metadata !87, i32 2079} ; [ DW_TAG_subprogram ]
!702 = metadata !{i32 786478, i32 0, metadata !283, metadata !"find_last_not_of", metadata !"find_last_not_of", metadata !"_ZNKSs16find_last_not_ofEcy", metadata !287, i32 2096, metadata !681, i1 false, i1 false, i32 0, i32 0, null, i32 256, i1 false, null, null, i32 0, metadata !87, i32 2096} ; [ DW_TAG_subprogram ]
!703 = metadata !{i32 786478, i32 0, metadata !283, metadata !"substr", metadata !"substr", metadata !"_ZNKSs6substrEyy", metadata !287, i32 2111, metadata !704, i1 false, i1 false, i32 0, i32 0, null, i32 256, i1 false, null, null, i32 0, metadata !87, i32 2111} ; [ DW_TAG_subprogram ]
!704 = metadata !{i32 786453, i32 0, metadata !"", i32 0, i32 0, i64 0, i64 0, i64 0, i32 0, null, metadata !705, i32 0, i32 0} ; [ DW_TAG_subroutine_type ]
!705 = metadata !{metadata !283, metadata !362, metadata !378, metadata !378}
!706 = metadata !{i32 786478, i32 0, metadata !283, metadata !"compare", metadata !"compare", metadata !"_ZNKSs7compareERKSs", metadata !287, i32 2129, metadata !707, i1 false, i1 false, i32 0, i32 0, null, i32 256, i1 false, null, null, i32 0, metadata !87, i32 2129} ; [ DW_TAG_subprogram ]
!707 = metadata !{i32 786453, i32 0, metadata !"", i32 0, i32 0, i64 0, i64 0, i64 0, i32 0, null, metadata !708, i32 0, i32 0} ; [ DW_TAG_subroutine_type ]
!708 = metadata !{metadata !56, metadata !362, metadata !480}
!709 = metadata !{i32 786478, i32 0, metadata !283, metadata !"compare", metadata !"compare", metadata !"_ZNKSs7compareEyyRKSs", metadata !287, i32 2159, metadata !710, i1 false, i1 false, i32 0, i32 0, null, i32 256, i1 false, null, null, i32 0, metadata !87, i32 2159} ; [ DW_TAG_subprogram ]
!710 = metadata !{i32 786453, i32 0, metadata !"", i32 0, i32 0, i64 0, i64 0, i64 0, i32 0, null, metadata !711, i32 0, i32 0} ; [ DW_TAG_subroutine_type ]
!711 = metadata !{metadata !56, metadata !362, metadata !378, metadata !378, metadata !480}
!712 = metadata !{i32 786478, i32 0, metadata !283, metadata !"compare", metadata !"compare", metadata !"_ZNKSs7compareEyyRKSsyy", metadata !287, i32 2183, metadata !713, i1 false, i1 false, i32 0, i32 0, null, i32 256, i1 false, null, null, i32 0, metadata !87, i32 2183} ; [ DW_TAG_subprogram ]
!713 = metadata !{i32 786453, i32 0, metadata !"", i32 0, i32 0, i64 0, i64 0, i64 0, i32 0, null, metadata !714, i32 0, i32 0} ; [ DW_TAG_subroutine_type ]
!714 = metadata !{metadata !56, metadata !362, metadata !378, metadata !378, metadata !480, metadata !378, metadata !378}
!715 = metadata !{i32 786478, i32 0, metadata !283, metadata !"compare", metadata !"compare", metadata !"_ZNKSs7compareEPKc", metadata !287, i32 2201, metadata !716, i1 false, i1 false, i32 0, i32 0, null, i32 256, i1 false, null, null, i32 0, metadata !87, i32 2201} ; [ DW_TAG_subprogram ]
!716 = metadata !{i32 786453, i32 0, metadata !"", i32 0, i32 0, i64 0, i64 0, i64 0, i32 0, null, metadata !717, i32 0, i32 0} ; [ DW_TAG_subroutine_type ]
!717 = metadata !{metadata !56, metadata !362, metadata !151}
!718 = metadata !{i32 786478, i32 0, metadata !283, metadata !"compare", metadata !"compare", metadata !"_ZNKSs7compareEyyPKc", metadata !287, i32 2224, metadata !719, i1 false, i1 false, i32 0, i32 0, null, i32 256, i1 false, null, null, i32 0, metadata !87, i32 2224} ; [ DW_TAG_subprogram ]
!719 = metadata !{i32 786453, i32 0, metadata !"", i32 0, i32 0, i64 0, i64 0, i64 0, i32 0, null, metadata !720, i32 0, i32 0} ; [ DW_TAG_subroutine_type ]
!720 = metadata !{metadata !56, metadata !362, metadata !378, metadata !378, metadata !151}
!721 = metadata !{i32 786478, i32 0, metadata !283, metadata !"compare", metadata !"compare", metadata !"_ZNKSs7compareEyyPKcy", metadata !287, i32 2249, metadata !722, i1 false, i1 false, i32 0, i32 0, null, i32 256, i1 false, null, null, i32 0, metadata !87, i32 2249} ; [ DW_TAG_subprogram ]
!722 = metadata !{i32 786453, i32 0, metadata !"", i32 0, i32 0, i64 0, i64 0, i64 0, i32 0, null, metadata !723, i32 0, i32 0} ; [ DW_TAG_subroutine_type ]
!723 = metadata !{metadata !56, metadata !362, metadata !378, metadata !378, metadata !151, metadata !378}
!724 = metadata !{metadata !725, metadata !726, metadata !779}
!725 = metadata !{i32 786479, null, metadata !"_CharT", metadata !153, null, i32 0, i32 0} ; [ DW_TAG_template_type_parameter ]
!726 = metadata !{i32 786479, null, metadata !"_Traits", metadata !727, null, i32 0, i32 0} ; [ DW_TAG_template_type_parameter ]
!727 = metadata !{i32 786434, metadata !728, metadata !"char_traits<char>", metadata !729, i32 236, i64 8, i64 8, i32 0, i32 0, null, metadata !730, i32 0, null, metadata !778} ; [ DW_TAG_class_type ]
!728 = metadata !{i32 786489, null, metadata !"std", metadata !729, i32 214} ; [ DW_TAG_namespace ]
!729 = metadata !{i32 786473, metadata !"C:/Xilinx/Vivado/2018.1/win64/tools/clang/bin\5C..\5Clib\5Cclang\5C3.1/../../../include/c++/4.5.2\5Cbits/char_traits.h", metadata !"C:\5CUsers\5Ccaiyujie\5CDesktop\5Cgongkaike_hls\5Ccode\5Cday6", null} ; [ DW_TAG_file_type ]
!730 = metadata !{metadata !731, metadata !738, metadata !741, metadata !742, metadata !746, metadata !749, metadata !752, metadata !756, metadata !757, metadata !760, metadata !766, metadata !769, metadata !772, metadata !775}
!731 = metadata !{i32 786478, i32 0, metadata !727, metadata !"assign", metadata !"assign", metadata !"_ZNSt11char_traitsIcE6assignERcRKc", metadata !729, i32 245, metadata !732, i1 false, i1 false, i32 0, i32 0, null, i32 256, i1 false, null, null, i32 0, metadata !87, i32 245} ; [ DW_TAG_subprogram ]
!732 = metadata !{i32 786453, i32 0, metadata !"", i32 0, i32 0, i64 0, i64 0, i64 0, i32 0, null, metadata !733, i32 0, i32 0} ; [ DW_TAG_subroutine_type ]
!733 = metadata !{null, metadata !734, metadata !736}
!734 = metadata !{i32 786448, null, null, null, i32 0, i64 0, i64 0, i64 0, i32 0, metadata !735} ; [ DW_TAG_reference_type ]
!735 = metadata !{i32 786454, metadata !727, metadata !"char_type", metadata !729, i32 238, i64 0, i64 0, i64 0, i32 0, metadata !153} ; [ DW_TAG_typedef ]
!736 = metadata !{i32 786448, null, null, null, i32 0, i64 0, i64 0, i64 0, i32 0, metadata !737} ; [ DW_TAG_reference_type ]
!737 = metadata !{i32 786470, null, metadata !"", null, i32 0, i64 0, i64 0, i64 0, i32 0, metadata !735} ; [ DW_TAG_const_type ]
!738 = metadata !{i32 786478, i32 0, metadata !727, metadata !"eq", metadata !"eq", metadata !"_ZNSt11char_traitsIcE2eqERKcS2_", metadata !729, i32 249, metadata !739, i1 false, i1 false, i32 0, i32 0, null, i32 256, i1 false, null, null, i32 0, metadata !87, i32 249} ; [ DW_TAG_subprogram ]
!739 = metadata !{i32 786453, i32 0, metadata !"", i32 0, i32 0, i64 0, i64 0, i64 0, i32 0, null, metadata !740, i32 0, i32 0} ; [ DW_TAG_subroutine_type ]
!740 = metadata !{metadata !213, metadata !736, metadata !736}
!741 = metadata !{i32 786478, i32 0, metadata !727, metadata !"lt", metadata !"lt", metadata !"_ZNSt11char_traitsIcE2ltERKcS2_", metadata !729, i32 253, metadata !739, i1 false, i1 false, i32 0, i32 0, null, i32 256, i1 false, null, null, i32 0, metadata !87, i32 253} ; [ DW_TAG_subprogram ]
!742 = metadata !{i32 786478, i32 0, metadata !727, metadata !"compare", metadata !"compare", metadata !"_ZNSt11char_traitsIcE7compareEPKcS2_y", metadata !729, i32 257, metadata !743, i1 false, i1 false, i32 0, i32 0, null, i32 256, i1 false, null, null, i32 0, metadata !87, i32 257} ; [ DW_TAG_subprogram ]
!743 = metadata !{i32 786453, i32 0, metadata !"", i32 0, i32 0, i64 0, i64 0, i64 0, i32 0, null, metadata !744, i32 0, i32 0} ; [ DW_TAG_subroutine_type ]
!744 = metadata !{metadata !56, metadata !745, metadata !745, metadata !138}
!745 = metadata !{i32 786447, null, metadata !"", null, i32 0, i64 64, i64 64, i64 0, i32 0, metadata !737} ; [ DW_TAG_pointer_type ]
!746 = metadata !{i32 786478, i32 0, metadata !727, metadata !"length", metadata !"length", metadata !"_ZNSt11char_traitsIcE6lengthEPKc", metadata !729, i32 261, metadata !747, i1 false, i1 false, i32 0, i32 0, null, i32 256, i1 false, null, null, i32 0, metadata !87, i32 261} ; [ DW_TAG_subprogram ]
!747 = metadata !{i32 786453, i32 0, metadata !"", i32 0, i32 0, i64 0, i64 0, i64 0, i32 0, null, metadata !748, i32 0, i32 0} ; [ DW_TAG_subroutine_type ]
!748 = metadata !{metadata !138, metadata !745}
!749 = metadata !{i32 786478, i32 0, metadata !727, metadata !"find", metadata !"find", metadata !"_ZNSt11char_traitsIcE4findEPKcyRS1_", metadata !729, i32 265, metadata !750, i1 false, i1 false, i32 0, i32 0, null, i32 256, i1 false, null, null, i32 0, metadata !87, i32 265} ; [ DW_TAG_subprogram ]
!750 = metadata !{i32 786453, i32 0, metadata !"", i32 0, i32 0, i64 0, i64 0, i64 0, i32 0, null, metadata !751, i32 0, i32 0} ; [ DW_TAG_subroutine_type ]
!751 = metadata !{metadata !745, metadata !745, metadata !138, metadata !736}
!752 = metadata !{i32 786478, i32 0, metadata !727, metadata !"move", metadata !"move", metadata !"_ZNSt11char_traitsIcE4moveEPcPKcy", metadata !729, i32 269, metadata !753, i1 false, i1 false, i32 0, i32 0, null, i32 256, i1 false, null, null, i32 0, metadata !87, i32 269} ; [ DW_TAG_subprogram ]
!753 = metadata !{i32 786453, i32 0, metadata !"", i32 0, i32 0, i64 0, i64 0, i64 0, i32 0, null, metadata !754, i32 0, i32 0} ; [ DW_TAG_subroutine_type ]
!754 = metadata !{metadata !755, metadata !755, metadata !745, metadata !138}
!755 = metadata !{i32 786447, null, metadata !"", null, i32 0, i64 64, i64 64, i64 0, i32 0, metadata !735} ; [ DW_TAG_pointer_type ]
!756 = metadata !{i32 786478, i32 0, metadata !727, metadata !"copy", metadata !"copy", metadata !"_ZNSt11char_traitsIcE4copyEPcPKcy", metadata !729, i32 273, metadata !753, i1 false, i1 false, i32 0, i32 0, null, i32 256, i1 false, null, null, i32 0, metadata !87, i32 273} ; [ DW_TAG_subprogram ]
!757 = metadata !{i32 786478, i32 0, metadata !727, metadata !"assign", metadata !"assign", metadata !"_ZNSt11char_traitsIcE6assignEPcyc", metadata !729, i32 277, metadata !758, i1 false, i1 false, i32 0, i32 0, null, i32 256, i1 false, null, null, i32 0, metadata !87, i32 277} ; [ DW_TAG_subprogram ]
!758 = metadata !{i32 786453, i32 0, metadata !"", i32 0, i32 0, i64 0, i64 0, i64 0, i32 0, null, metadata !759, i32 0, i32 0} ; [ DW_TAG_subroutine_type ]
!759 = metadata !{metadata !755, metadata !755, metadata !138, metadata !735}
!760 = metadata !{i32 786478, i32 0, metadata !727, metadata !"to_char_type", metadata !"to_char_type", metadata !"_ZNSt11char_traitsIcE12to_char_typeERKi", metadata !729, i32 281, metadata !761, i1 false, i1 false, i32 0, i32 0, null, i32 256, i1 false, null, null, i32 0, metadata !87, i32 281} ; [ DW_TAG_subprogram ]
!761 = metadata !{i32 786453, i32 0, metadata !"", i32 0, i32 0, i64 0, i64 0, i64 0, i32 0, null, metadata !762, i32 0, i32 0} ; [ DW_TAG_subroutine_type ]
!762 = metadata !{metadata !735, metadata !763}
!763 = metadata !{i32 786448, null, null, null, i32 0, i64 0, i64 0, i64 0, i32 0, metadata !764} ; [ DW_TAG_reference_type ]
!764 = metadata !{i32 786470, null, metadata !"", null, i32 0, i64 0, i64 0, i64 0, i32 0, metadata !765} ; [ DW_TAG_const_type ]
!765 = metadata !{i32 786454, metadata !727, metadata !"int_type", metadata !729, i32 239, i64 0, i64 0, i64 0, i32 0, metadata !56} ; [ DW_TAG_typedef ]
!766 = metadata !{i32 786478, i32 0, metadata !727, metadata !"to_int_type", metadata !"to_int_type", metadata !"_ZNSt11char_traitsIcE11to_int_typeERKc", metadata !729, i32 287, metadata !767, i1 false, i1 false, i32 0, i32 0, null, i32 256, i1 false, null, null, i32 0, metadata !87, i32 287} ; [ DW_TAG_subprogram ]
!767 = metadata !{i32 786453, i32 0, metadata !"", i32 0, i32 0, i64 0, i64 0, i64 0, i32 0, null, metadata !768, i32 0, i32 0} ; [ DW_TAG_subroutine_type ]
!768 = metadata !{metadata !765, metadata !736}
!769 = metadata !{i32 786478, i32 0, metadata !727, metadata !"eq_int_type", metadata !"eq_int_type", metadata !"_ZNSt11char_traitsIcE11eq_int_typeERKiS2_", metadata !729, i32 291, metadata !770, i1 false, i1 false, i32 0, i32 0, null, i32 256, i1 false, null, null, i32 0, metadata !87, i32 291} ; [ DW_TAG_subprogram ]
!770 = metadata !{i32 786453, i32 0, metadata !"", i32 0, i32 0, i64 0, i64 0, i64 0, i32 0, null, metadata !771, i32 0, i32 0} ; [ DW_TAG_subroutine_type ]
!771 = metadata !{metadata !213, metadata !763, metadata !763}
!772 = metadata !{i32 786478, i32 0, metadata !727, metadata !"eof", metadata !"eof", metadata !"_ZNSt11char_traitsIcE3eofEv", metadata !729, i32 295, metadata !773, i1 false, i1 false, i32 0, i32 0, null, i32 256, i1 false, null, null, i32 0, metadata !87, i32 295} ; [ DW_TAG_subprogram ]
!773 = metadata !{i32 786453, i32 0, metadata !"", i32 0, i32 0, i64 0, i64 0, i64 0, i32 0, null, metadata !774, i32 0, i32 0} ; [ DW_TAG_subroutine_type ]
!774 = metadata !{metadata !765}
!775 = metadata !{i32 786478, i32 0, metadata !727, metadata !"not_eof", metadata !"not_eof", metadata !"_ZNSt11char_traitsIcE7not_eofERKi", metadata !729, i32 299, metadata !776, i1 false, i1 false, i32 0, i32 0, null, i32 256, i1 false, null, null, i32 0, metadata !87, i32 299} ; [ DW_TAG_subprogram ]
!776 = metadata !{i32 786453, i32 0, metadata !"", i32 0, i32 0, i64 0, i64 0, i64 0, i32 0, null, metadata !777, i32 0, i32 0} ; [ DW_TAG_subroutine_type ]
!777 = metadata !{metadata !765, metadata !763}
!778 = metadata !{metadata !725}
!779 = metadata !{i32 786479, null, metadata !"_Alloc", metadata !291, null, i32 0, i32 0} ; [ DW_TAG_template_type_parameter ]
!780 = metadata !{i32 786447, i32 0, metadata !"", i32 0, i32 0, i64 64, i64 64, i64 0, i32 64, metadata !263} ; [ DW_TAG_pointer_type ]
!781 = metadata !{i32 786478, i32 0, metadata !114, metadata !"operator==", metadata !"operator==", metadata !"_ZNKSt6localeeqERKS_", metadata !116, i32 224, metadata !782, i1 false, i1 false, i32 0, i32 0, null, i32 256, i1 false, null, null, i32 0, metadata !87, i32 224} ; [ DW_TAG_subprogram ]
!782 = metadata !{i32 786453, i32 0, metadata !"", i32 0, i32 0, i64 0, i64 0, i64 0, i32 0, null, metadata !783, i32 0, i32 0} ; [ DW_TAG_subroutine_type ]
!783 = metadata !{metadata !213, metadata !780, metadata !262}
!784 = metadata !{i32 786478, i32 0, metadata !114, metadata !"operator!=", metadata !"operator!=", metadata !"_ZNKSt6localeneERKS_", metadata !116, i32 233, metadata !782, i1 false, i1 false, i32 0, i32 0, null, i32 256, i1 false, null, null, i32 0, metadata !87, i32 233} ; [ DW_TAG_subprogram ]
!785 = metadata !{i32 786478, i32 0, metadata !114, metadata !"global", metadata !"global", metadata !"_ZNSt6locale6globalERKS_", metadata !116, i32 268, metadata !786, i1 false, i1 false, i32 0, i32 0, null, i32 256, i1 false, null, null, i32 0, metadata !87, i32 268} ; [ DW_TAG_subprogram ]
!786 = metadata !{i32 786453, i32 0, metadata !"", i32 0, i32 0, i64 0, i64 0, i64 0, i32 0, null, metadata !787, i32 0, i32 0} ; [ DW_TAG_subroutine_type ]
!787 = metadata !{metadata !114, metadata !262}
!788 = metadata !{i32 786478, i32 0, metadata !114, metadata !"classic", metadata !"classic", metadata !"_ZNSt6locale7classicEv", metadata !116, i32 274, metadata !789, i1 false, i1 false, i32 0, i32 0, null, i32 256, i1 false, null, null, i32 0, metadata !87, i32 274} ; [ DW_TAG_subprogram ]
!789 = metadata !{i32 786453, i32 0, metadata !"", i32 0, i32 0, i64 0, i64 0, i64 0, i32 0, null, metadata !790, i32 0, i32 0} ; [ DW_TAG_subroutine_type ]
!790 = metadata !{metadata !262}
!791 = metadata !{i32 786478, i32 0, metadata !114, metadata !"locale", metadata !"locale", metadata !"", metadata !116, i32 309, metadata !792, i1 false, i1 false, i32 0, i32 0, null, i32 385, i1 false, null, null, i32 0, metadata !87, i32 309} ; [ DW_TAG_subprogram ]
!792 = metadata !{i32 786453, i32 0, metadata !"", i32 0, i32 0, i64 0, i64 0, i64 0, i32 0, null, metadata !793, i32 0, i32 0} ; [ DW_TAG_subroutine_type ]
!793 = metadata !{null, metadata !258, metadata !119}
!794 = metadata !{i32 786478, i32 0, metadata !114, metadata !"_S_initialize", metadata !"_S_initialize", metadata !"_ZNSt6locale13_S_initializeEv", metadata !116, i32 312, metadata !132, i1 false, i1 false, i32 0, i32 0, null, i32 257, i1 false, null, null, i32 0, metadata !87, i32 312} ; [ DW_TAG_subprogram ]
!795 = metadata !{i32 786478, i32 0, metadata !114, metadata !"_S_initialize_once", metadata !"_S_initialize_once", metadata !"_ZNSt6locale18_S_initialize_onceEv", metadata !116, i32 315, metadata !132, i1 false, i1 false, i32 0, i32 0, null, i32 257, i1 false, null, null, i32 0, metadata !87, i32 315} ; [ DW_TAG_subprogram ]
!796 = metadata !{i32 786478, i32 0, metadata !114, metadata !"_S_normalize_category", metadata !"_S_normalize_category", metadata !"_ZNSt6locale21_S_normalize_categoryEi", metadata !116, i32 318, metadata !797, i1 false, i1 false, i32 0, i32 0, null, i32 257, i1 false, null, null, i32 0, metadata !87, i32 318} ; [ DW_TAG_subprogram ]
!797 = metadata !{i32 786453, i32 0, metadata !"", i32 0, i32 0, i64 0, i64 0, i64 0, i32 0, null, metadata !798, i32 0, i32 0} ; [ DW_TAG_subroutine_type ]
!798 = metadata !{metadata !218, metadata !218}
!799 = metadata !{i32 786478, i32 0, metadata !114, metadata !"_M_coalesce", metadata !"_M_coalesce", metadata !"_ZNSt6locale11_M_coalesceERKS_S1_i", metadata !116, i32 321, metadata !271, i1 false, i1 false, i32 0, i32 0, null, i32 257, i1 false, null, null, i32 0, metadata !87, i32 321} ; [ DW_TAG_subprogram ]
!800 = metadata !{i32 786474, metadata !114, null, metadata !116, i32 0, i64 0, i64 0, i64 0, i32 0, metadata !120} ; [ DW_TAG_friend ]
!801 = metadata !{i32 786474, metadata !114, null, metadata !116, i32 0, i64 0, i64 0, i64 0, i32 0, metadata !127} ; [ DW_TAG_friend ]
!802 = metadata !{i32 786478, i32 0, metadata !49, metadata !"register_callback", metadata !"register_callback", metadata !"_ZNSt8ios_base17register_callbackEPFvNS_5eventERS_iEi", metadata !5, i32 456, metadata !803, i1 false, i1 false, i32 0, i32 0, null, i32 256, i1 false, null, null, i32 0, metadata !87, i32 456} ; [ DW_TAG_subprogram ]
!803 = metadata !{i32 786453, i32 0, metadata !"", i32 0, i32 0, i64 0, i64 0, i64 0, i32 0, null, metadata !804, i32 0, i32 0} ; [ DW_TAG_subroutine_type ]
!804 = metadata !{null, metadata !805, metadata !75, metadata !56}
!805 = metadata !{i32 786447, i32 0, metadata !"", i32 0, i32 0, i64 64, i64 64, i64 0, i32 64, metadata !49} ; [ DW_TAG_pointer_type ]
!806 = metadata !{i32 786478, i32 0, metadata !49, metadata !"_M_call_callbacks", metadata !"_M_call_callbacks", metadata !"_ZNSt8ios_base17_M_call_callbacksENS_5eventE", metadata !5, i32 491, metadata !807, i1 false, i1 false, i32 0, i32 0, null, i32 258, i1 false, null, null, i32 0, metadata !87, i32 491} ; [ DW_TAG_subprogram ]
!807 = metadata !{i32 786453, i32 0, metadata !"", i32 0, i32 0, i64 0, i64 0, i64 0, i32 0, null, metadata !808, i32 0, i32 0} ; [ DW_TAG_subroutine_type ]
!808 = metadata !{null, metadata !805, metadata !48}
!809 = metadata !{i32 786478, i32 0, metadata !49, metadata !"_M_dispose_callbacks", metadata !"_M_dispose_callbacks", metadata !"_ZNSt8ios_base20_M_dispose_callbacksEv", metadata !5, i32 494, metadata !810, i1 false, i1 false, i32 0, i32 0, null, i32 258, i1 false, null, null, i32 0, metadata !87, i32 494} ; [ DW_TAG_subprogram ]
!810 = metadata !{i32 786453, i32 0, metadata !"", i32 0, i32 0, i64 0, i64 0, i64 0, i32 0, null, metadata !811, i32 0, i32 0} ; [ DW_TAG_subroutine_type ]
!811 = metadata !{null, metadata !805}
!812 = metadata !{i32 786478, i32 0, metadata !49, metadata !"_M_grow_words", metadata !"_M_grow_words", metadata !"_ZNSt8ios_base13_M_grow_wordsEib", metadata !5, i32 517, metadata !813, i1 false, i1 false, i32 0, i32 0, null, i32 258, i1 false, null, null, i32 0, metadata !87, i32 517} ; [ DW_TAG_subprogram ]
!813 = metadata !{i32 786453, i32 0, metadata !"", i32 0, i32 0, i64 0, i64 0, i64 0, i32 0, null, metadata !814, i32 0, i32 0} ; [ DW_TAG_subroutine_type ]
!814 = metadata !{metadata !815, metadata !805, metadata !56, metadata !213}
!815 = metadata !{i32 786448, null, null, null, i32 0, i64 0, i64 0, i64 0, i32 0, metadata !96} ; [ DW_TAG_reference_type ]
!816 = metadata !{i32 786478, i32 0, metadata !49, metadata !"_M_init", metadata !"_M_init", metadata !"_ZNSt8ios_base7_M_initEv", metadata !5, i32 523, metadata !810, i1 false, i1 false, i32 0, i32 0, null, i32 258, i1 false, null, null, i32 0, metadata !87, i32 523} ; [ DW_TAG_subprogram ]
!817 = metadata !{i32 786478, i32 0, metadata !49, metadata !"flags", metadata !"flags", metadata !"_ZNKSt8ios_base5flagsEv", metadata !5, i32 549, metadata !818, i1 false, i1 false, i32 0, i32 0, null, i32 256, i1 false, null, null, i32 0, metadata !87, i32 549} ; [ DW_TAG_subprogram ]
!818 = metadata !{i32 786453, i32 0, metadata !"", i32 0, i32 0, i64 0, i64 0, i64 0, i32 0, null, metadata !819, i32 0, i32 0} ; [ DW_TAG_subroutine_type ]
!819 = metadata !{metadata !65, metadata !820}
!820 = metadata !{i32 786447, i32 0, metadata !"", i32 0, i32 0, i64 64, i64 64, i64 0, i32 64, metadata !821} ; [ DW_TAG_pointer_type ]
!821 = metadata !{i32 786470, null, metadata !"", null, i32 0, i64 0, i64 0, i64 0, i32 0, metadata !49} ; [ DW_TAG_const_type ]
!822 = metadata !{i32 786478, i32 0, metadata !49, metadata !"flags", metadata !"flags", metadata !"_ZNSt8ios_base5flagsESt13_Ios_Fmtflags", metadata !5, i32 560, metadata !823, i1 false, i1 false, i32 0, i32 0, null, i32 256, i1 false, null, null, i32 0, metadata !87, i32 560} ; [ DW_TAG_subprogram ]
!823 = metadata !{i32 786453, i32 0, metadata !"", i32 0, i32 0, i64 0, i64 0, i64 0, i32 0, null, metadata !824, i32 0, i32 0} ; [ DW_TAG_subroutine_type ]
!824 = metadata !{metadata !65, metadata !805, metadata !65}
!825 = metadata !{i32 786478, i32 0, metadata !49, metadata !"setf", metadata !"setf", metadata !"_ZNSt8ios_base4setfESt13_Ios_Fmtflags", metadata !5, i32 576, metadata !823, i1 false, i1 false, i32 0, i32 0, null, i32 256, i1 false, null, null, i32 0, metadata !87, i32 576} ; [ DW_TAG_subprogram ]
!826 = metadata !{i32 786478, i32 0, metadata !49, metadata !"setf", metadata !"setf", metadata !"_ZNSt8ios_base4setfESt13_Ios_FmtflagsS0_", metadata !5, i32 593, metadata !827, i1 false, i1 false, i32 0, i32 0, null, i32 256, i1 false, null, null, i32 0, metadata !87, i32 593} ; [ DW_TAG_subprogram ]
!827 = metadata !{i32 786453, i32 0, metadata !"", i32 0, i32 0, i64 0, i64 0, i64 0, i32 0, null, metadata !828, i32 0, i32 0} ; [ DW_TAG_subroutine_type ]
!828 = metadata !{metadata !65, metadata !805, metadata !65, metadata !65}
!829 = metadata !{i32 786478, i32 0, metadata !49, metadata !"unsetf", metadata !"unsetf", metadata !"_ZNSt8ios_base6unsetfESt13_Ios_Fmtflags", metadata !5, i32 608, metadata !830, i1 false, i1 false, i32 0, i32 0, null, i32 256, i1 false, null, null, i32 0, metadata !87, i32 608} ; [ DW_TAG_subprogram ]
!830 = metadata !{i32 786453, i32 0, metadata !"", i32 0, i32 0, i64 0, i64 0, i64 0, i32 0, null, metadata !831, i32 0, i32 0} ; [ DW_TAG_subroutine_type ]
!831 = metadata !{null, metadata !805, metadata !65}
!832 = metadata !{i32 786478, i32 0, metadata !49, metadata !"precision", metadata !"precision", metadata !"_ZNKSt8ios_base9precisionEv", metadata !5, i32 619, metadata !833, i1 false, i1 false, i32 0, i32 0, null, i32 256, i1 false, null, null, i32 0, metadata !87, i32 619} ; [ DW_TAG_subprogram ]
!833 = metadata !{i32 786453, i32 0, metadata !"", i32 0, i32 0, i64 0, i64 0, i64 0, i32 0, null, metadata !834, i32 0, i32 0} ; [ DW_TAG_subroutine_type ]
!834 = metadata !{metadata !58, metadata !820}
!835 = metadata !{i32 786478, i32 0, metadata !49, metadata !"precision", metadata !"precision", metadata !"_ZNSt8ios_base9precisionEx", metadata !5, i32 628, metadata !836, i1 false, i1 false, i32 0, i32 0, null, i32 256, i1 false, null, null, i32 0, metadata !87, i32 628} ; [ DW_TAG_subprogram ]
!836 = metadata !{i32 786453, i32 0, metadata !"", i32 0, i32 0, i64 0, i64 0, i64 0, i32 0, null, metadata !837, i32 0, i32 0} ; [ DW_TAG_subroutine_type ]
!837 = metadata !{metadata !58, metadata !805, metadata !58}
!838 = metadata !{i32 786478, i32 0, metadata !49, metadata !"width", metadata !"width", metadata !"_ZNKSt8ios_base5widthEv", metadata !5, i32 642, metadata !833, i1 false, i1 false, i32 0, i32 0, null, i32 256, i1 false, null, null, i32 0, metadata !87, i32 642} ; [ DW_TAG_subprogram ]
!839 = metadata !{i32 786478, i32 0, metadata !49, metadata !"width", metadata !"width", metadata !"_ZNSt8ios_base5widthEx", metadata !5, i32 651, metadata !836, i1 false, i1 false, i32 0, i32 0, null, i32 256, i1 false, null, null, i32 0, metadata !87, i32 651} ; [ DW_TAG_subprogram ]
!840 = metadata !{i32 786478, i32 0, metadata !49, metadata !"sync_with_stdio", metadata !"sync_with_stdio", metadata !"_ZNSt8ios_base15sync_with_stdioEb", metadata !5, i32 670, metadata !841, i1 false, i1 false, i32 0, i32 0, null, i32 256, i1 false, null, null, i32 0, metadata !87, i32 670} ; [ DW_TAG_subprogram ]
!841 = metadata !{i32 786453, i32 0, metadata !"", i32 0, i32 0, i64 0, i64 0, i64 0, i32 0, null, metadata !842, i32 0, i32 0} ; [ DW_TAG_subroutine_type ]
!842 = metadata !{metadata !213, metadata !213}
!843 = metadata !{i32 786478, i32 0, metadata !49, metadata !"imbue", metadata !"imbue", metadata !"_ZNSt8ios_base5imbueERKSt6locale", metadata !5, i32 682, metadata !844, i1 false, i1 false, i32 0, i32 0, null, i32 256, i1 false, null, null, i32 0, metadata !87, i32 682} ; [ DW_TAG_subprogram ]
!844 = metadata !{i32 786453, i32 0, metadata !"", i32 0, i32 0, i64 0, i64 0, i64 0, i32 0, null, metadata !845, i32 0, i32 0} ; [ DW_TAG_subroutine_type ]
!845 = metadata !{metadata !114, metadata !805, metadata !262}
!846 = metadata !{i32 786478, i32 0, metadata !49, metadata !"getloc", metadata !"getloc", metadata !"_ZNKSt8ios_base6getlocEv", metadata !5, i32 693, metadata !847, i1 false, i1 false, i32 0, i32 0, null, i32 256, i1 false, null, null, i32 0, metadata !87, i32 693} ; [ DW_TAG_subprogram ]
!847 = metadata !{i32 786453, i32 0, metadata !"", i32 0, i32 0, i64 0, i64 0, i64 0, i32 0, null, metadata !848, i32 0, i32 0} ; [ DW_TAG_subroutine_type ]
!848 = metadata !{metadata !114, metadata !820}
!849 = metadata !{i32 786478, i32 0, metadata !49, metadata !"_M_getloc", metadata !"_M_getloc", metadata !"_ZNKSt8ios_base9_M_getlocEv", metadata !5, i32 704, metadata !850, i1 false, i1 false, i32 0, i32 0, null, i32 256, i1 false, null, null, i32 0, metadata !87, i32 704} ; [ DW_TAG_subprogram ]
!850 = metadata !{i32 786453, i32 0, metadata !"", i32 0, i32 0, i64 0, i64 0, i64 0, i32 0, null, metadata !851, i32 0, i32 0} ; [ DW_TAG_subroutine_type ]
!851 = metadata !{metadata !262, metadata !820}
!852 = metadata !{i32 786478, i32 0, metadata !49, metadata !"xalloc", metadata !"xalloc", metadata !"_ZNSt8ios_base6xallocEv", metadata !5, i32 723, metadata !54, i1 false, i1 false, i32 0, i32 0, null, i32 256, i1 false, null, null, i32 0, metadata !87, i32 723} ; [ DW_TAG_subprogram ]
!853 = metadata !{i32 786478, i32 0, metadata !49, metadata !"iword", metadata !"iword", metadata !"_ZNSt8ios_base5iwordEi", metadata !5, i32 739, metadata !854, i1 false, i1 false, i32 0, i32 0, null, i32 256, i1 false, null, null, i32 0, metadata !87, i32 739} ; [ DW_TAG_subprogram ]
!854 = metadata !{i32 786453, i32 0, metadata !"", i32 0, i32 0, i64 0, i64 0, i64 0, i32 0, null, metadata !855, i32 0, i32 0} ; [ DW_TAG_subroutine_type ]
!855 = metadata !{metadata !856, metadata !805, metadata !56}
!856 = metadata !{i32 786448, null, null, null, i32 0, i64 0, i64 0, i64 0, i32 0, metadata !101} ; [ DW_TAG_reference_type ]
!857 = metadata !{i32 786478, i32 0, metadata !49, metadata !"pword", metadata !"pword", metadata !"_ZNSt8ios_base5pwordEi", metadata !5, i32 760, metadata !858, i1 false, i1 false, i32 0, i32 0, null, i32 256, i1 false, null, null, i32 0, metadata !87, i32 760} ; [ DW_TAG_subprogram ]
!858 = metadata !{i32 786453, i32 0, metadata !"", i32 0, i32 0, i64 0, i64 0, i64 0, i32 0, null, metadata !859, i32 0, i32 0} ; [ DW_TAG_subroutine_type ]
!859 = metadata !{metadata !860, metadata !805, metadata !56}
!860 = metadata !{i32 786448, null, null, null, i32 0, i64 0, i64 0, i64 0, i32 0, metadata !99} ; [ DW_TAG_reference_type ]
!861 = metadata !{i32 786478, i32 0, metadata !49, metadata !"~ios_base", metadata !"~ios_base", metadata !"", metadata !5, i32 776, metadata !810, i1 false, i1 false, i32 1, i32 0, metadata !49, i32 256, i1 false, null, null, i32 0, metadata !87, i32 776} ; [ DW_TAG_subprogram ]
!862 = metadata !{i32 786478, i32 0, metadata !49, metadata !"ios_base", metadata !"ios_base", metadata !"", metadata !5, i32 779, metadata !810, i1 false, i1 false, i32 0, i32 0, null, i32 258, i1 false, null, null, i32 0, metadata !87, i32 779} ; [ DW_TAG_subprogram ]
!863 = metadata !{i32 786478, i32 0, metadata !49, metadata !"ios_base", metadata !"ios_base", metadata !"", metadata !5, i32 784, metadata !864, i1 false, i1 false, i32 0, i32 0, null, i32 257, i1 false, null, null, i32 0, metadata !87, i32 784} ; [ DW_TAG_subprogram ]
!864 = metadata !{i32 786453, i32 0, metadata !"", i32 0, i32 0, i64 0, i64 0, i64 0, i32 0, null, metadata !865, i32 0, i32 0} ; [ DW_TAG_subroutine_type ]
!865 = metadata !{null, metadata !805, metadata !866}
!866 = metadata !{i32 786448, null, null, null, i32 0, i64 0, i64 0, i64 0, i32 0, metadata !821} ; [ DW_TAG_reference_type ]
!867 = metadata !{i32 786478, i32 0, metadata !49, metadata !"operator=", metadata !"operator=", metadata !"_ZNSt8ios_baseaSERKS_", metadata !5, i32 787, metadata !868, i1 false, i1 false, i32 0, i32 0, null, i32 257, i1 false, null, null, i32 0, metadata !87, i32 787} ; [ DW_TAG_subprogram ]
!868 = metadata !{i32 786453, i32 0, metadata !"", i32 0, i32 0, i64 0, i64 0, i64 0, i32 0, null, metadata !869, i32 0, i32 0} ; [ DW_TAG_subroutine_type ]
!869 = metadata !{metadata !79, metadata !805, metadata !866}
!870 = metadata !{metadata !871, metadata !872, metadata !873}
!871 = metadata !{i32 786472, metadata !"erase_event", i64 0} ; [ DW_TAG_enumerator ]
!872 = metadata !{i32 786472, metadata !"imbue_event", i64 1} ; [ DW_TAG_enumerator ]
!873 = metadata !{i32 786472, metadata !"copyfmt_event", i64 2} ; [ DW_TAG_enumerator ]
!874 = metadata !{i32 786436, null, metadata !"BaseMode", metadata !875, i32 603, i64 5, i64 8, i32 0, i32 0, null, metadata !876, i32 0, i32 0} ; [ DW_TAG_enumeration_type ]
!875 = metadata !{i32 786473, metadata !"C:/Xilinx/Vivado/2018.1/common/technology/autopilot/ap_int_syn.h", metadata !"C:\5CUsers\5Ccaiyujie\5CDesktop\5Cgongkaike_hls\5Ccode\5Cday6", null} ; [ DW_TAG_file_type ]
!876 = metadata !{metadata !877, metadata !878, metadata !879, metadata !880}
!877 = metadata !{i32 786472, metadata !"SC_BIN", i64 2} ; [ DW_TAG_enumerator ]
!878 = metadata !{i32 786472, metadata !"SC_OCT", i64 8} ; [ DW_TAG_enumerator ]
!879 = metadata !{i32 786472, metadata !"SC_DEC", i64 10} ; [ DW_TAG_enumerator ]
!880 = metadata !{i32 786472, metadata !"SC_HEX", i64 16} ; [ DW_TAG_enumerator ]
!881 = metadata !{metadata !882}
!882 = metadata !{i32 0}
!883 = metadata !{metadata !884}
!884 = metadata !{metadata !885, metadata !6008, metadata !6009, metadata !6012, metadata !6013, metadata !6014, metadata !7954, metadata !7955, metadata !7956, metadata !7957, metadata !7961, metadata !7962, metadata !7963, metadata !7964, metadata !7965, metadata !7966, metadata !7967, metadata !7968, metadata !7974, metadata !7975, metadata !7976, metadata !7977, metadata !7978, metadata !7979, metadata !7980, metadata !7981, metadata !8169, metadata !8170, metadata !8171, metadata !8172, metadata !8175, metadata !8178, metadata !8179, metadata !8180, metadata !8181, metadata !8182, metadata !8183, metadata !8184, metadata !8185, metadata !8186, metadata !8187, metadata !8192, metadata !8193, metadata !8194, metadata !8195, metadata !8199, metadata !8200, metadata !8201, metadata !8202, metadata !8203, metadata !8204, metadata !8845, metadata !8846, metadata !8849, metadata !8850, metadata !8851, metadata !8852, metadata !8853, metadata !8854, metadata !8857, metadata !8858, metadata !8864, metadata !8865, metadata !8866, metadata !8869, metadata !8870, metadata !8871, metadata !8872, metadata !8875, metadata !8876, metadata !8877, metadata !8878, metadata !8879, metadata !8880, metadata !8881, metadata !8882, metadata !8883, metadata !8884, metadata !8885, metadata !8886, metadata !8887, metadata !8888, metadata !8889, metadata !8894, metadata !8898, metadata !8899, metadata !8900, metadata !8901, metadata !8902, metadata !8903, metadata !8904, metadata !8905, metadata !8911, metadata !8912, metadata !8913, metadata !8919, metadata !8920, metadata !8921, metadata !8927, metadata !8928, metadata !8929, metadata !8930, metadata !8931, metadata !8932, metadata !8933, metadata !8934, metadata !8940, metadata !8941, metadata !8942, metadata !8943, metadata !8944, metadata !8945, metadata !8946, metadata !8947, metadata !8948, metadata !8949, metadata !8955, metadata !8956, metadata !8957, metadata !8963, metadata !8964, metadata !8965, metadata !8971, metadata !8974, metadata !8975, metadata !8981, metadata !8982, metadata !8983, metadata !8984, metadata !8985, metadata !8990, metadata !8996, metadata !8997, metadata !8998, metadata !8999, metadata !9000, metadata !9001, metadata !9002, metadata !9003, metadata !9004, metadata !9007, metadata !9010, metadata !9011, metadata !9012, metadata !9088, metadata !9089, metadata !9090, metadata !9091, metadata !9092, metadata !9093, metadata !9098, metadata !9102, metadata !9103, metadata !9104, metadata !9105, metadata !9108, metadata !9109, metadata !9112, metadata !9113, metadata !9119, metadata !9120, metadata !9121, metadata !9122, metadata !9125, metadata !9126, metadata !9129, metadata !9130, metadata !9131, metadata !9132, metadata !9133, metadata !9134, metadata !9135, metadata !9136, metadata !9137, metadata !9138, metadata !9139, metadata !9144, metadata !9148, metadata !9149, metadata !9150, metadata !9151, metadata !9154, metadata !9155, metadata !9158, metadata !9159, metadata !9165, metadata !9171, metadata !9174, metadata !9175, metadata !9181, metadata !9184, metadata !9185, metadata !9190, metadata !9196, metadata !9199, metadata !9200, metadata !9203, metadata !9204, metadata !9205, metadata !9206, metadata !9207, metadata !9208, metadata !9209, metadata !9210, metadata !9215, metadata !9219, metadata !9220, metadata !9221, metadata !9222, metadata !9226, metadata !9230, metadata !9231, metadata !9232, metadata !9233, metadata !9236, metadata !9237, metadata !9240, metadata !9241, metadata !9242, metadata !9243, metadata !9244, metadata !9247, metadata !9250, metadata !9330, metadata !9331, metadata !9332, metadata !9333, metadata !9334, metadata !9342, metadata !9343, metadata !9344, metadata !9345, metadata !9348, metadata !9349, metadata !9352, metadata !9353, metadata !9359, metadata !9360, metadata !9363, metadata !9364, metadata !9365, metadata !9366, metadata !9367, metadata !9368, metadata !9373, metadata !9377, metadata !9378, metadata !9379, metadata !9380, metadata !9384, metadata !9387, metadata !9390, metadata !9391, metadata !9394, metadata !9395, metadata !9399, metadata !9403, metadata !9406, metadata !9407, metadata !9408}
!885 = metadata !{i32 786478, i32 0, metadata !886, metadata !"Conv", metadata !"Conv", metadata !"_Z4Conv7ap_uintILi16EES0_S0_S0_S_ILi8EES1_S1_S1_S_ILi1EES2_P6ap_intILi128EES_ILi4EES5_S6_S5_S6_", metadata !886, i32 7, metadata !887, i1 false, i1 true, i32 0, i32 0, null, i32 256, i1 false, null, null, null, metadata !87, i32 13} ; [ DW_TAG_subprogram ]
!886 = metadata !{i32 786473, metadata !"conv_core/conv_core.cpp", metadata !"C:\5CUsers\5Ccaiyujie\5CDesktop\5Cgongkaike_hls\5Ccode\5Cday6", null} ; [ DW_TAG_file_type ]
!887 = metadata !{i32 786453, i32 0, metadata !"", i32 0, i32 0, i64 0, i64 0, i64 0, i32 0, null, metadata !888, i32 0, i32 0} ; [ DW_TAG_subroutine_type ]
!888 = metadata !{null, metadata !889, metadata !889, metadata !889, metadata !889, metadata !2059, metadata !2059, metadata !2059, metadata !2059, metadata !2924, metadata !2924, metadata !3243, metadata !5690, metadata !3243, metadata !5690, metadata !3243, metadata !5690}
!889 = metadata !{i32 786434, null, metadata !"ap_uint<16>", metadata !890, i32 183, i64 16, i64 16, i32 0, i32 0, null, metadata !891, i32 0, null, metadata !2058} ; [ DW_TAG_class_type ]
!890 = metadata !{i32 786473, metadata !"C:/Xilinx/Vivado/2018.1/common/technology/autopilot\5Cap_int.h", metadata !"C:\5CUsers\5Ccaiyujie\5CDesktop\5Cgongkaike_hls\5Ccode\5Cday6", null} ; [ DW_TAG_file_type ]
!891 = metadata !{metadata !892, metadata !1452, metadata !1456, metadata !1462, metadata !1468, metadata !1730, metadata !1733, metadata !1994, metadata !1997, metadata !2000, metadata !2003, metadata !2006, metadata !2009, metadata !2012, metadata !2015, metadata !2018, metadata !2021, metadata !2024, metadata !2027, metadata !2030, metadata !2033, metadata !2036, metadata !2039, metadata !2042, metadata !2046, metadata !2049, metadata !2053, metadata !2056, metadata !2057}
!892 = metadata !{i32 786460, metadata !889, null, metadata !890, i32 0, i64 0, i64 0, i64 0, i32 0, metadata !893} ; [ DW_TAG_inheritance ]
!893 = metadata !{i32 786434, null, metadata !"ap_int_base<16, false, true>", metadata !875, i32 1453, i64 16, i64 16, i32 0, i32 0, null, metadata !894, i32 0, null, metadata !1451} ; [ DW_TAG_class_type ]
!894 = metadata !{metadata !895, metadata !913, metadata !917, metadata !925, metadata !931, metadata !934, metadata !938, metadata !942, metadata !946, metadata !950, metadata !953, metadata !957, metadata !960, metadata !964, metadata !968, metadata !972, metadata !977, metadata !981, metadata !985, metadata !988, metadata !991, metadata !995, metadata !998, metadata !1001, metadata !1002, metadata !1006, metadata !1009, metadata !1012, metadata !1015, metadata !1018, metadata !1021, metadata !1024, metadata !1027, metadata !1030, metadata !1033, metadata !1036, metadata !1039, metadata !1048, metadata !1051, metadata !1054, metadata !1057, metadata !1060, metadata !1063, metadata !1066, metadata !1069, metadata !1072, metadata !1075, metadata !1078, metadata !1081, metadata !1084, metadata !1085, metadata !1089, metadata !1092, metadata !1093, metadata !1094, metadata !1095, metadata !1096, metadata !1097, metadata !1100, metadata !1101, metadata !1104, metadata !1105, metadata !1106, metadata !1107, metadata !1108, metadata !1109, metadata !1112, metadata !1113, metadata !1114, metadata !1117, metadata !1118, metadata !1121, metadata !1122, metadata !1409, metadata !1415, metadata !1416, metadata !1419, metadata !1420, metadata !1424, metadata !1425, metadata !1426, metadata !1427, metadata !1430, metadata !1431, metadata !1432, metadata !1433, metadata !1434, metadata !1435, metadata !1436, metadata !1437, metadata !1438, metadata !1439, metadata !1440, metadata !1441, metadata !1444, metadata !1447, metadata !1450}
!895 = metadata !{i32 786460, metadata !893, null, metadata !875, i32 0, i64 0, i64 0, i64 0, i32 0, metadata !896} ; [ DW_TAG_inheritance ]
!896 = metadata !{i32 786434, null, metadata !"ssdm_int<16 + 1024 * 0, false>", metadata !897, i32 18, i64 16, i64 16, i32 0, i32 0, null, metadata !898, i32 0, null, metadata !910} ; [ DW_TAG_class_type ]
!897 = metadata !{i32 786473, metadata !"C:/Xilinx/Vivado/2018.1/common/technology/autopilot/etc/autopilot_dt.def", metadata !"C:\5CUsers\5Ccaiyujie\5CDesktop\5Cgongkaike_hls\5Ccode\5Cday6", null} ; [ DW_TAG_file_type ]
!898 = metadata !{metadata !899, metadata !901, metadata !905}
!899 = metadata !{i32 786445, metadata !896, metadata !"V", metadata !897, i32 18, i64 16, i64 16, i64 0, i32 0, metadata !900} ; [ DW_TAG_member ]
!900 = metadata !{i32 786468, null, metadata !"uint16", null, i32 0, i64 16, i64 16, i64 0, i32 0, i32 7} ; [ DW_TAG_base_type ]
!901 = metadata !{i32 786478, i32 0, metadata !896, metadata !"ssdm_int", metadata !"ssdm_int", metadata !"", metadata !897, i32 18, metadata !902, i1 false, i1 false, i32 0, i32 0, null, i32 256, i1 false, null, null, i32 0, metadata !87, i32 18} ; [ DW_TAG_subprogram ]
!902 = metadata !{i32 786453, i32 0, metadata !"", i32 0, i32 0, i64 0, i64 0, i64 0, i32 0, null, metadata !903, i32 0, i32 0} ; [ DW_TAG_subroutine_type ]
!903 = metadata !{null, metadata !904}
!904 = metadata !{i32 786447, i32 0, metadata !"", i32 0, i32 0, i64 64, i64 64, i64 0, i32 64, metadata !896} ; [ DW_TAG_pointer_type ]
!905 = metadata !{i32 786478, i32 0, metadata !896, metadata !"ssdm_int", metadata !"ssdm_int", metadata !"", metadata !897, i32 18, metadata !906, i1 false, i1 false, i32 0, i32 0, null, i32 320, i1 false, null, null, i32 0, metadata !87, i32 18} ; [ DW_TAG_subprogram ]
!906 = metadata !{i32 786453, i32 0, metadata !"", i32 0, i32 0, i64 0, i64 0, i64 0, i32 0, null, metadata !907, i32 0, i32 0} ; [ DW_TAG_subroutine_type ]
!907 = metadata !{null, metadata !904, metadata !908}
!908 = metadata !{i32 786448, null, null, null, i32 0, i64 0, i64 0, i64 0, i32 0, metadata !909} ; [ DW_TAG_reference_type ]
!909 = metadata !{i32 786470, null, metadata !"", null, i32 0, i64 0, i64 0, i64 0, i32 0, metadata !896} ; [ DW_TAG_const_type ]
!910 = metadata !{metadata !911, metadata !912}
!911 = metadata !{i32 786480, null, metadata !"_AP_N", metadata !56, i64 16, null, i32 0, i32 0} ; [ DW_TAG_template_value_parameter ]
!912 = metadata !{i32 786480, null, metadata !"_AP_S", metadata !213, i64 0, null, i32 0, i32 0} ; [ DW_TAG_template_value_parameter ]
!913 = metadata !{i32 786478, i32 0, metadata !893, metadata !"ap_int_base", metadata !"ap_int_base", metadata !"", metadata !875, i32 1494, metadata !914, i1 false, i1 false, i32 0, i32 0, null, i32 256, i1 false, null, null, i32 0, metadata !87, i32 1494} ; [ DW_TAG_subprogram ]
!914 = metadata !{i32 786453, i32 0, metadata !"", i32 0, i32 0, i64 0, i64 0, i64 0, i32 0, null, metadata !915, i32 0, i32 0} ; [ DW_TAG_subroutine_type ]
!915 = metadata !{null, metadata !916}
!916 = metadata !{i32 786447, i32 0, metadata !"", i32 0, i32 0, i64 64, i64 64, i64 0, i32 64, metadata !893} ; [ DW_TAG_pointer_type ]
!917 = metadata !{i32 786478, i32 0, metadata !893, metadata !"ap_int_base<16, false>", metadata !"ap_int_base<16, false>", metadata !"", metadata !875, i32 1506, metadata !918, i1 false, i1 false, i32 0, i32 0, null, i32 256, i1 false, null, metadata !922, i32 0, metadata !87, i32 1506} ; [ DW_TAG_subprogram ]
!918 = metadata !{i32 786453, i32 0, metadata !"", i32 0, i32 0, i64 0, i64 0, i64 0, i32 0, null, metadata !919, i32 0, i32 0} ; [ DW_TAG_subroutine_type ]
!919 = metadata !{null, metadata !916, metadata !920}
!920 = metadata !{i32 786448, null, null, null, i32 0, i64 0, i64 0, i64 0, i32 0, metadata !921} ; [ DW_TAG_reference_type ]
!921 = metadata !{i32 786470, null, metadata !"", null, i32 0, i64 0, i64 0, i64 0, i32 0, metadata !893} ; [ DW_TAG_const_type ]
!922 = metadata !{metadata !923, metadata !924}
!923 = metadata !{i32 786480, null, metadata !"_AP_W2", metadata !56, i64 16, null, i32 0, i32 0} ; [ DW_TAG_template_value_parameter ]
!924 = metadata !{i32 786480, null, metadata !"_AP_S2", metadata !213, i64 0, null, i32 0, i32 0} ; [ DW_TAG_template_value_parameter ]
!925 = metadata !{i32 786478, i32 0, metadata !893, metadata !"ap_int_base<16, false>", metadata !"ap_int_base<16, false>", metadata !"", metadata !875, i32 1509, metadata !926, i1 false, i1 false, i32 0, i32 0, null, i32 256, i1 false, null, metadata !922, i32 0, metadata !87, i32 1509} ; [ DW_TAG_subprogram ]
!926 = metadata !{i32 786453, i32 0, metadata !"", i32 0, i32 0, i64 0, i64 0, i64 0, i32 0, null, metadata !927, i32 0, i32 0} ; [ DW_TAG_subroutine_type ]
!927 = metadata !{null, metadata !916, metadata !928}
!928 = metadata !{i32 786448, null, null, null, i32 0, i64 0, i64 0, i64 0, i32 0, metadata !929} ; [ DW_TAG_reference_type ]
!929 = metadata !{i32 786470, null, metadata !"", null, i32 0, i64 0, i64 0, i64 0, i32 0, metadata !930} ; [ DW_TAG_const_type ]
!930 = metadata !{i32 786485, null, metadata !"", null, i32 0, i64 0, i64 0, i64 0, i32 0, metadata !893} ; [ DW_TAG_volatile_type ]
!931 = metadata !{i32 786478, i32 0, metadata !893, metadata !"ap_int_base", metadata !"ap_int_base", metadata !"", metadata !875, i32 1516, metadata !932, i1 false, i1 false, i32 0, i32 0, null, i32 384, i1 false, null, null, i32 0, metadata !87, i32 1516} ; [ DW_TAG_subprogram ]
!932 = metadata !{i32 786453, i32 0, metadata !"", i32 0, i32 0, i64 0, i64 0, i64 0, i32 0, null, metadata !933, i32 0, i32 0} ; [ DW_TAG_subroutine_type ]
!933 = metadata !{null, metadata !916, metadata !213}
!934 = metadata !{i32 786478, i32 0, metadata !893, metadata !"ap_int_base", metadata !"ap_int_base", metadata !"", metadata !875, i32 1517, metadata !935, i1 false, i1 false, i32 0, i32 0, null, i32 384, i1 false, null, null, i32 0, metadata !87, i32 1517} ; [ DW_TAG_subprogram ]
!935 = metadata !{i32 786453, i32 0, metadata !"", i32 0, i32 0, i64 0, i64 0, i64 0, i32 0, null, metadata !936, i32 0, i32 0} ; [ DW_TAG_subroutine_type ]
!936 = metadata !{null, metadata !916, metadata !937}
!937 = metadata !{i32 786468, null, metadata !"signed char", null, i32 0, i64 8, i64 8, i64 0, i32 0, i32 6} ; [ DW_TAG_base_type ]
!938 = metadata !{i32 786478, i32 0, metadata !893, metadata !"ap_int_base", metadata !"ap_int_base", metadata !"", metadata !875, i32 1518, metadata !939, i1 false, i1 false, i32 0, i32 0, null, i32 384, i1 false, null, null, i32 0, metadata !87, i32 1518} ; [ DW_TAG_subprogram ]
!939 = metadata !{i32 786453, i32 0, metadata !"", i32 0, i32 0, i64 0, i64 0, i64 0, i32 0, null, metadata !940, i32 0, i32 0} ; [ DW_TAG_subroutine_type ]
!940 = metadata !{null, metadata !916, metadata !941}
!941 = metadata !{i32 786468, null, metadata !"unsigned char", null, i32 0, i64 8, i64 8, i64 0, i32 0, i32 8} ; [ DW_TAG_base_type ]
!942 = metadata !{i32 786478, i32 0, metadata !893, metadata !"ap_int_base", metadata !"ap_int_base", metadata !"", metadata !875, i32 1519, metadata !943, i1 false, i1 false, i32 0, i32 0, null, i32 384, i1 false, null, null, i32 0, metadata !87, i32 1519} ; [ DW_TAG_subprogram ]
!943 = metadata !{i32 786453, i32 0, metadata !"", i32 0, i32 0, i64 0, i64 0, i64 0, i32 0, null, metadata !944, i32 0, i32 0} ; [ DW_TAG_subroutine_type ]
!944 = metadata !{null, metadata !916, metadata !945}
!945 = metadata !{i32 786468, null, metadata !"short", null, i32 0, i64 16, i64 16, i64 0, i32 0, i32 5} ; [ DW_TAG_base_type ]
!946 = metadata !{i32 786478, i32 0, metadata !893, metadata !"ap_int_base", metadata !"ap_int_base", metadata !"", metadata !875, i32 1520, metadata !947, i1 false, i1 false, i32 0, i32 0, null, i32 384, i1 false, null, null, i32 0, metadata !87, i32 1520} ; [ DW_TAG_subprogram ]
!947 = metadata !{i32 786453, i32 0, metadata !"", i32 0, i32 0, i64 0, i64 0, i64 0, i32 0, null, metadata !948, i32 0, i32 0} ; [ DW_TAG_subroutine_type ]
!948 = metadata !{null, metadata !916, metadata !949}
!949 = metadata !{i32 786468, null, metadata !"unsigned short", null, i32 0, i64 16, i64 16, i64 0, i32 0, i32 7} ; [ DW_TAG_base_type ]
!950 = metadata !{i32 786478, i32 0, metadata !893, metadata !"ap_int_base", metadata !"ap_int_base", metadata !"", metadata !875, i32 1521, metadata !951, i1 false, i1 false, i32 0, i32 0, null, i32 384, i1 false, null, null, i32 0, metadata !87, i32 1521} ; [ DW_TAG_subprogram ]
!951 = metadata !{i32 786453, i32 0, metadata !"", i32 0, i32 0, i64 0, i64 0, i64 0, i32 0, null, metadata !952, i32 0, i32 0} ; [ DW_TAG_subroutine_type ]
!952 = metadata !{null, metadata !916, metadata !56}
!953 = metadata !{i32 786478, i32 0, metadata !893, metadata !"ap_int_base", metadata !"ap_int_base", metadata !"", metadata !875, i32 1522, metadata !954, i1 false, i1 false, i32 0, i32 0, null, i32 384, i1 false, null, null, i32 0, metadata !87, i32 1522} ; [ DW_TAG_subprogram ]
!954 = metadata !{i32 786453, i32 0, metadata !"", i32 0, i32 0, i64 0, i64 0, i64 0, i32 0, null, metadata !955, i32 0, i32 0} ; [ DW_TAG_subroutine_type ]
!955 = metadata !{null, metadata !916, metadata !956}
!956 = metadata !{i32 786468, null, metadata !"unsigned int", null, i32 0, i64 32, i64 32, i64 0, i32 0, i32 7} ; [ DW_TAG_base_type ]
!957 = metadata !{i32 786478, i32 0, metadata !893, metadata !"ap_int_base", metadata !"ap_int_base", metadata !"", metadata !875, i32 1523, metadata !958, i1 false, i1 false, i32 0, i32 0, null, i32 384, i1 false, null, null, i32 0, metadata !87, i32 1523} ; [ DW_TAG_subprogram ]
!958 = metadata !{i32 786453, i32 0, metadata !"", i32 0, i32 0, i64 0, i64 0, i64 0, i32 0, null, metadata !959, i32 0, i32 0} ; [ DW_TAG_subroutine_type ]
!959 = metadata !{null, metadata !916, metadata !101}
!960 = metadata !{i32 786478, i32 0, metadata !893, metadata !"ap_int_base", metadata !"ap_int_base", metadata !"", metadata !875, i32 1524, metadata !961, i1 false, i1 false, i32 0, i32 0, null, i32 384, i1 false, null, null, i32 0, metadata !87, i32 1524} ; [ DW_TAG_subprogram ]
!961 = metadata !{i32 786453, i32 0, metadata !"", i32 0, i32 0, i64 0, i64 0, i64 0, i32 0, null, metadata !962, i32 0, i32 0} ; [ DW_TAG_subroutine_type ]
!962 = metadata !{null, metadata !916, metadata !963}
!963 = metadata !{i32 786468, null, metadata !"long unsigned int", null, i32 0, i64 32, i64 32, i64 0, i32 0, i32 7} ; [ DW_TAG_base_type ]
!964 = metadata !{i32 786478, i32 0, metadata !893, metadata !"ap_int_base", metadata !"ap_int_base", metadata !"", metadata !875, i32 1525, metadata !965, i1 false, i1 false, i32 0, i32 0, null, i32 384, i1 false, null, null, i32 0, metadata !87, i32 1525} ; [ DW_TAG_subprogram ]
!965 = metadata !{i32 786453, i32 0, metadata !"", i32 0, i32 0, i64 0, i64 0, i64 0, i32 0, null, metadata !966, i32 0, i32 0} ; [ DW_TAG_subroutine_type ]
!966 = metadata !{null, metadata !916, metadata !967}
!967 = metadata !{i32 786454, null, metadata !"ap_slong", metadata !875, i32 112, i64 0, i64 0, i64 0, i32 0, metadata !62} ; [ DW_TAG_typedef ]
!968 = metadata !{i32 786478, i32 0, metadata !893, metadata !"ap_int_base", metadata !"ap_int_base", metadata !"", metadata !875, i32 1526, metadata !969, i1 false, i1 false, i32 0, i32 0, null, i32 384, i1 false, null, null, i32 0, metadata !87, i32 1526} ; [ DW_TAG_subprogram ]
!969 = metadata !{i32 786453, i32 0, metadata !"", i32 0, i32 0, i64 0, i64 0, i64 0, i32 0, null, metadata !970, i32 0, i32 0} ; [ DW_TAG_subroutine_type ]
!970 = metadata !{null, metadata !916, metadata !971}
!971 = metadata !{i32 786454, null, metadata !"ap_ulong", metadata !875, i32 111, i64 0, i64 0, i64 0, i32 0, metadata !139} ; [ DW_TAG_typedef ]
!972 = metadata !{i32 786478, i32 0, metadata !893, metadata !"ap_int_base", metadata !"ap_int_base", metadata !"", metadata !875, i32 1527, metadata !973, i1 false, i1 false, i32 0, i32 0, null, i32 384, i1 false, null, null, i32 0, metadata !87, i32 1527} ; [ DW_TAG_subprogram ]
!973 = metadata !{i32 786453, i32 0, metadata !"", i32 0, i32 0, i64 0, i64 0, i64 0, i32 0, null, metadata !974, i32 0, i32 0} ; [ DW_TAG_subroutine_type ]
!974 = metadata !{null, metadata !916, metadata !975}
!975 = metadata !{i32 786454, null, metadata !"half", metadata !875, i32 54, i64 0, i64 0, i64 0, i32 0, metadata !976} ; [ DW_TAG_typedef ]
!976 = metadata !{i32 786468, null, metadata !"half", null, i32 0, i64 16, i64 16, i64 0, i32 0, i32 4} ; [ DW_TAG_base_type ]
!977 = metadata !{i32 786478, i32 0, metadata !893, metadata !"ap_int_base", metadata !"ap_int_base", metadata !"", metadata !875, i32 1528, metadata !978, i1 false, i1 false, i32 0, i32 0, null, i32 384, i1 false, null, null, i32 0, metadata !87, i32 1528} ; [ DW_TAG_subprogram ]
!978 = metadata !{i32 786453, i32 0, metadata !"", i32 0, i32 0, i64 0, i64 0, i64 0, i32 0, null, metadata !979, i32 0, i32 0} ; [ DW_TAG_subroutine_type ]
!979 = metadata !{null, metadata !916, metadata !980}
!980 = metadata !{i32 786468, null, metadata !"float", null, i32 0, i64 32, i64 32, i64 0, i32 0, i32 4} ; [ DW_TAG_base_type ]
!981 = metadata !{i32 786478, i32 0, metadata !893, metadata !"ap_int_base", metadata !"ap_int_base", metadata !"", metadata !875, i32 1529, metadata !982, i1 false, i1 false, i32 0, i32 0, null, i32 384, i1 false, null, null, i32 0, metadata !87, i32 1529} ; [ DW_TAG_subprogram ]
!982 = metadata !{i32 786453, i32 0, metadata !"", i32 0, i32 0, i64 0, i64 0, i64 0, i32 0, null, metadata !983, i32 0, i32 0} ; [ DW_TAG_subroutine_type ]
!983 = metadata !{null, metadata !916, metadata !984}
!984 = metadata !{i32 786468, null, metadata !"double", null, i32 0, i64 64, i64 64, i64 0, i32 0, i32 4} ; [ DW_TAG_base_type ]
!985 = metadata !{i32 786478, i32 0, metadata !893, metadata !"ap_int_base", metadata !"ap_int_base", metadata !"", metadata !875, i32 1556, metadata !986, i1 false, i1 false, i32 0, i32 0, null, i32 256, i1 false, null, null, i32 0, metadata !87, i32 1556} ; [ DW_TAG_subprogram ]
!986 = metadata !{i32 786453, i32 0, metadata !"", i32 0, i32 0, i64 0, i64 0, i64 0, i32 0, null, metadata !987, i32 0, i32 0} ; [ DW_TAG_subroutine_type ]
!987 = metadata !{null, metadata !916, metadata !151}
!988 = metadata !{i32 786478, i32 0, metadata !893, metadata !"ap_int_base", metadata !"ap_int_base", metadata !"", metadata !875, i32 1563, metadata !989, i1 false, i1 false, i32 0, i32 0, null, i32 256, i1 false, null, null, i32 0, metadata !87, i32 1563} ; [ DW_TAG_subprogram ]
!989 = metadata !{i32 786453, i32 0, metadata !"", i32 0, i32 0, i64 0, i64 0, i64 0, i32 0, null, metadata !990, i32 0, i32 0} ; [ DW_TAG_subroutine_type ]
!990 = metadata !{null, metadata !916, metadata !151, metadata !937}
!991 = metadata !{i32 786478, i32 0, metadata !893, metadata !"read", metadata !"read", metadata !"_ZNV11ap_int_baseILi16ELb0ELb1EE4readEv", metadata !875, i32 1584, metadata !992, i1 false, i1 false, i32 0, i32 0, null, i32 256, i1 false, null, null, i32 0, metadata !87, i32 1584} ; [ DW_TAG_subprogram ]
!992 = metadata !{i32 786453, i32 0, metadata !"", i32 0, i32 0, i64 0, i64 0, i64 0, i32 0, null, metadata !993, i32 0, i32 0} ; [ DW_TAG_subroutine_type ]
!993 = metadata !{metadata !893, metadata !994}
!994 = metadata !{i32 786447, i32 0, metadata !"", i32 0, i32 0, i64 64, i64 64, i64 0, i32 64, metadata !930} ; [ DW_TAG_pointer_type ]
!995 = metadata !{i32 786478, i32 0, metadata !893, metadata !"write", metadata !"write", metadata !"_ZNV11ap_int_baseILi16ELb0ELb1EE5writeERKS0_", metadata !875, i32 1590, metadata !996, i1 false, i1 false, i32 0, i32 0, null, i32 256, i1 false, null, null, i32 0, metadata !87, i32 1590} ; [ DW_TAG_subprogram ]
!996 = metadata !{i32 786453, i32 0, metadata !"", i32 0, i32 0, i64 0, i64 0, i64 0, i32 0, null, metadata !997, i32 0, i32 0} ; [ DW_TAG_subroutine_type ]
!997 = metadata !{null, metadata !994, metadata !920}
!998 = metadata !{i32 786478, i32 0, metadata !893, metadata !"operator=", metadata !"operator=", metadata !"_ZNV11ap_int_baseILi16ELb0ELb1EEaSERVKS0_", metadata !875, i32 1602, metadata !999, i1 false, i1 false, i32 0, i32 0, null, i32 256, i1 false, null, null, i32 0, metadata !87, i32 1602} ; [ DW_TAG_subprogram ]
!999 = metadata !{i32 786453, i32 0, metadata !"", i32 0, i32 0, i64 0, i64 0, i64 0, i32 0, null, metadata !1000, i32 0, i32 0} ; [ DW_TAG_subroutine_type ]
!1000 = metadata !{null, metadata !994, metadata !928}
!1001 = metadata !{i32 786478, i32 0, metadata !893, metadata !"operator=", metadata !"operator=", metadata !"_ZNV11ap_int_baseILi16ELb0ELb1EEaSERKS0_", metadata !875, i32 1611, metadata !996, i1 false, i1 false, i32 0, i32 0, null, i32 256, i1 false, null, null, i32 0, metadata !87, i32 1611} ; [ DW_TAG_subprogram ]
!1002 = metadata !{i32 786478, i32 0, metadata !893, metadata !"operator=", metadata !"operator=", metadata !"_ZN11ap_int_baseILi16ELb0ELb1EEaSERVKS0_", metadata !875, i32 1634, metadata !1003, i1 false, i1 false, i32 0, i32 0, null, i32 256, i1 false, null, null, i32 0, metadata !87, i32 1634} ; [ DW_TAG_subprogram ]
!1003 = metadata !{i32 786453, i32 0, metadata !"", i32 0, i32 0, i64 0, i64 0, i64 0, i32 0, null, metadata !1004, i32 0, i32 0} ; [ DW_TAG_subroutine_type ]
!1004 = metadata !{metadata !1005, metadata !916, metadata !928}
!1005 = metadata !{i32 786448, null, null, null, i32 0, i64 0, i64 0, i64 0, i32 0, metadata !893} ; [ DW_TAG_reference_type ]
!1006 = metadata !{i32 786478, i32 0, metadata !893, metadata !"operator=", metadata !"operator=", metadata !"_ZN11ap_int_baseILi16ELb0ELb1EEaSERKS0_", metadata !875, i32 1639, metadata !1007, i1 false, i1 false, i32 0, i32 0, null, i32 256, i1 false, null, null, i32 0, metadata !87, i32 1639} ; [ DW_TAG_subprogram ]
!1007 = metadata !{i32 786453, i32 0, metadata !"", i32 0, i32 0, i64 0, i64 0, i64 0, i32 0, null, metadata !1008, i32 0, i32 0} ; [ DW_TAG_subroutine_type ]
!1008 = metadata !{metadata !1005, metadata !916, metadata !920}
!1009 = metadata !{i32 786478, i32 0, metadata !893, metadata !"operator=", metadata !"operator=", metadata !"_ZN11ap_int_baseILi16ELb0ELb1EEaSEPKc", metadata !875, i32 1643, metadata !1010, i1 false, i1 false, i32 0, i32 0, null, i32 256, i1 false, null, null, i32 0, metadata !87, i32 1643} ; [ DW_TAG_subprogram ]
!1010 = metadata !{i32 786453, i32 0, metadata !"", i32 0, i32 0, i64 0, i64 0, i64 0, i32 0, null, metadata !1011, i32 0, i32 0} ; [ DW_TAG_subroutine_type ]
!1011 = metadata !{metadata !1005, metadata !916, metadata !151}
!1012 = metadata !{i32 786478, i32 0, metadata !893, metadata !"set", metadata !"set", metadata !"_ZN11ap_int_baseILi16ELb0ELb1EE3setEPKca", metadata !875, i32 1651, metadata !1013, i1 false, i1 false, i32 0, i32 0, null, i32 256, i1 false, null, null, i32 0, metadata !87, i32 1651} ; [ DW_TAG_subprogram ]
!1013 = metadata !{i32 786453, i32 0, metadata !"", i32 0, i32 0, i64 0, i64 0, i64 0, i32 0, null, metadata !1014, i32 0, i32 0} ; [ DW_TAG_subroutine_type ]
!1014 = metadata !{metadata !1005, metadata !916, metadata !151, metadata !937}
!1015 = metadata !{i32 786478, i32 0, metadata !893, metadata !"operator=", metadata !"operator=", metadata !"_ZN11ap_int_baseILi16ELb0ELb1EEaSEa", metadata !875, i32 1665, metadata !1016, i1 false, i1 false, i32 0, i32 0, null, i32 256, i1 false, null, null, i32 0, metadata !87, i32 1665} ; [ DW_TAG_subprogram ]
!1016 = metadata !{i32 786453, i32 0, metadata !"", i32 0, i32 0, i64 0, i64 0, i64 0, i32 0, null, metadata !1017, i32 0, i32 0} ; [ DW_TAG_subroutine_type ]
!1017 = metadata !{metadata !1005, metadata !916, metadata !937}
!1018 = metadata !{i32 786478, i32 0, metadata !893, metadata !"operator=", metadata !"operator=", metadata !"_ZN11ap_int_baseILi16ELb0ELb1EEaSEh", metadata !875, i32 1666, metadata !1019, i1 false, i1 false, i32 0, i32 0, null, i32 256, i1 false, null, null, i32 0, metadata !87, i32 1666} ; [ DW_TAG_subprogram ]
!1019 = metadata !{i32 786453, i32 0, metadata !"", i32 0, i32 0, i64 0, i64 0, i64 0, i32 0, null, metadata !1020, i32 0, i32 0} ; [ DW_TAG_subroutine_type ]
!1020 = metadata !{metadata !1005, metadata !916, metadata !941}
!1021 = metadata !{i32 786478, i32 0, metadata !893, metadata !"operator=", metadata !"operator=", metadata !"_ZN11ap_int_baseILi16ELb0ELb1EEaSEs", metadata !875, i32 1667, metadata !1022, i1 false, i1 false, i32 0, i32 0, null, i32 256, i1 false, null, null, i32 0, metadata !87, i32 1667} ; [ DW_TAG_subprogram ]
!1022 = metadata !{i32 786453, i32 0, metadata !"", i32 0, i32 0, i64 0, i64 0, i64 0, i32 0, null, metadata !1023, i32 0, i32 0} ; [ DW_TAG_subroutine_type ]
!1023 = metadata !{metadata !1005, metadata !916, metadata !945}
!1024 = metadata !{i32 786478, i32 0, metadata !893, metadata !"operator=", metadata !"operator=", metadata !"_ZN11ap_int_baseILi16ELb0ELb1EEaSEt", metadata !875, i32 1668, metadata !1025, i1 false, i1 false, i32 0, i32 0, null, i32 256, i1 false, null, null, i32 0, metadata !87, i32 1668} ; [ DW_TAG_subprogram ]
!1025 = metadata !{i32 786453, i32 0, metadata !"", i32 0, i32 0, i64 0, i64 0, i64 0, i32 0, null, metadata !1026, i32 0, i32 0} ; [ DW_TAG_subroutine_type ]
!1026 = metadata !{metadata !1005, metadata !916, metadata !949}
!1027 = metadata !{i32 786478, i32 0, metadata !893, metadata !"operator=", metadata !"operator=", metadata !"_ZN11ap_int_baseILi16ELb0ELb1EEaSEi", metadata !875, i32 1669, metadata !1028, i1 false, i1 false, i32 0, i32 0, null, i32 256, i1 false, null, null, i32 0, metadata !87, i32 1669} ; [ DW_TAG_subprogram ]
!1028 = metadata !{i32 786453, i32 0, metadata !"", i32 0, i32 0, i64 0, i64 0, i64 0, i32 0, null, metadata !1029, i32 0, i32 0} ; [ DW_TAG_subroutine_type ]
!1029 = metadata !{metadata !1005, metadata !916, metadata !56}
!1030 = metadata !{i32 786478, i32 0, metadata !893, metadata !"operator=", metadata !"operator=", metadata !"_ZN11ap_int_baseILi16ELb0ELb1EEaSEj", metadata !875, i32 1670, metadata !1031, i1 false, i1 false, i32 0, i32 0, null, i32 256, i1 false, null, null, i32 0, metadata !87, i32 1670} ; [ DW_TAG_subprogram ]
!1031 = metadata !{i32 786453, i32 0, metadata !"", i32 0, i32 0, i64 0, i64 0, i64 0, i32 0, null, metadata !1032, i32 0, i32 0} ; [ DW_TAG_subroutine_type ]
!1032 = metadata !{metadata !1005, metadata !916, metadata !956}
!1033 = metadata !{i32 786478, i32 0, metadata !893, metadata !"operator=", metadata !"operator=", metadata !"_ZN11ap_int_baseILi16ELb0ELb1EEaSEx", metadata !875, i32 1671, metadata !1034, i1 false, i1 false, i32 0, i32 0, null, i32 256, i1 false, null, null, i32 0, metadata !87, i32 1671} ; [ DW_TAG_subprogram ]
!1034 = metadata !{i32 786453, i32 0, metadata !"", i32 0, i32 0, i64 0, i64 0, i64 0, i32 0, null, metadata !1035, i32 0, i32 0} ; [ DW_TAG_subroutine_type ]
!1035 = metadata !{metadata !1005, metadata !916, metadata !967}
!1036 = metadata !{i32 786478, i32 0, metadata !893, metadata !"operator=", metadata !"operator=", metadata !"_ZN11ap_int_baseILi16ELb0ELb1EEaSEy", metadata !875, i32 1672, metadata !1037, i1 false, i1 false, i32 0, i32 0, null, i32 256, i1 false, null, null, i32 0, metadata !87, i32 1672} ; [ DW_TAG_subprogram ]
!1037 = metadata !{i32 786453, i32 0, metadata !"", i32 0, i32 0, i64 0, i64 0, i64 0, i32 0, null, metadata !1038, i32 0, i32 0} ; [ DW_TAG_subroutine_type ]
!1038 = metadata !{metadata !1005, metadata !916, metadata !971}
!1039 = metadata !{i32 786478, i32 0, metadata !893, metadata !"operator unsigned short", metadata !"operator unsigned short", metadata !"_ZNK11ap_int_baseILi16ELb0ELb1EEcvtEv", metadata !875, i32 1710, metadata !1040, i1 false, i1 false, i32 0, i32 0, null, i32 256, i1 false, null, null, i32 0, metadata !87, i32 1710} ; [ DW_TAG_subprogram ]
!1040 = metadata !{i32 786453, i32 0, metadata !"", i32 0, i32 0, i64 0, i64 0, i64 0, i32 0, null, metadata !1041, i32 0, i32 0} ; [ DW_TAG_subroutine_type ]
!1041 = metadata !{metadata !1042, metadata !1047}
!1042 = metadata !{i32 786454, metadata !893, metadata !"RetType", metadata !875, i32 1458, i64 0, i64 0, i64 0, i32 0, metadata !1043} ; [ DW_TAG_typedef ]
!1043 = metadata !{i32 786454, metadata !1044, metadata !"Type", metadata !875, i32 1432, i64 0, i64 0, i64 0, i32 0, metadata !949} ; [ DW_TAG_typedef ]
!1044 = metadata !{i32 786434, null, metadata !"retval<2, false>", metadata !875, i32 1431, i64 8, i64 8, i32 0, i32 0, null, metadata !882, i32 0, null, metadata !1045} ; [ DW_TAG_class_type ]
!1045 = metadata !{metadata !1046, metadata !912}
!1046 = metadata !{i32 786480, null, metadata !"_AP_N", metadata !56, i64 2, null, i32 0, i32 0} ; [ DW_TAG_template_value_parameter ]
!1047 = metadata !{i32 786447, i32 0, metadata !"", i32 0, i32 0, i64 64, i64 64, i64 0, i32 64, metadata !921} ; [ DW_TAG_pointer_type ]
!1048 = metadata !{i32 786478, i32 0, metadata !893, metadata !"to_bool", metadata !"to_bool", metadata !"_ZNK11ap_int_baseILi16ELb0ELb1EE7to_boolEv", metadata !875, i32 1716, metadata !1049, i1 false, i1 false, i32 0, i32 0, null, i32 256, i1 false, null, null, i32 0, metadata !87, i32 1716} ; [ DW_TAG_subprogram ]
!1049 = metadata !{i32 786453, i32 0, metadata !"", i32 0, i32 0, i64 0, i64 0, i64 0, i32 0, null, metadata !1050, i32 0, i32 0} ; [ DW_TAG_subroutine_type ]
!1050 = metadata !{metadata !213, metadata !1047}
!1051 = metadata !{i32 786478, i32 0, metadata !893, metadata !"to_uchar", metadata !"to_uchar", metadata !"_ZNK11ap_int_baseILi16ELb0ELb1EE8to_ucharEv", metadata !875, i32 1717, metadata !1052, i1 false, i1 false, i32 0, i32 0, null, i32 256, i1 false, null, null, i32 0, metadata !87, i32 1717} ; [ DW_TAG_subprogram ]
!1052 = metadata !{i32 786453, i32 0, metadata !"", i32 0, i32 0, i64 0, i64 0, i64 0, i32 0, null, metadata !1053, i32 0, i32 0} ; [ DW_TAG_subroutine_type ]
!1053 = metadata !{metadata !941, metadata !1047}
!1054 = metadata !{i32 786478, i32 0, metadata !893, metadata !"to_char", metadata !"to_char", metadata !"_ZNK11ap_int_baseILi16ELb0ELb1EE7to_charEv", metadata !875, i32 1718, metadata !1055, i1 false, i1 false, i32 0, i32 0, null, i32 256, i1 false, null, null, i32 0, metadata !87, i32 1718} ; [ DW_TAG_subprogram ]
!1055 = metadata !{i32 786453, i32 0, metadata !"", i32 0, i32 0, i64 0, i64 0, i64 0, i32 0, null, metadata !1056, i32 0, i32 0} ; [ DW_TAG_subroutine_type ]
!1056 = metadata !{metadata !937, metadata !1047}
